

Microchip Technology PIC18 LITE Macro Assembler V1.32 build 58300 
                                                                                               Thu Jul 11 06:37:51 2019

Microchip Technology Omniscient Code Generator (Lite mode) build 58300
     1                           	processor	18F45K50
     2                           	fnconf	rparam,??,?,0
     3                           	opt	pw 120
     4                           	opt	lm
     5                           	psect	idataCOMRAM,global,class=CODE,delta=1
     6                           	psect	idataBANK0,global,class=CODE,delta=1
     7                           	psect	idataBANK1,global,class=CODE,delta=1
     8                           	psect	smallconst,global,reloc=2,class=SMALLCONST,delta=1
     9                           	psect	cinit,global,reloc=2,class=CODE,delta=1
    10                           	psect	bssCOMRAM,global,class=COMRAM,space=1,delta=1
    11                           	psect	dataCOMRAM,global,class=COMRAM,space=1,delta=1
    12                           	psect	bssBANK0,global,class=BANK0,space=1,delta=1
    13                           	psect	dataBANK0,global,class=BANK0,space=1,delta=1
    14                           	psect	dataBANK1,global,class=BANK1,space=1,delta=1
    15                           	psect	cstackBANK0,global,class=BANK0,space=1,delta=1
    16                           	psect	cstackCOMRAM,global,class=COMRAM,space=1,delta=1
    17                           	psect	text0,global,reloc=2,class=CODE,delta=1
    18                           	psect	text1,global,reloc=2,class=CODE,delta=1
    19                           	psect	text2,global,reloc=2,class=CODE,delta=1
    20                           	psect	text3,global,reloc=2,class=CODE,delta=1
    21                           	psect	text4,global,reloc=2,class=CODE,delta=1
    22                           	psect	text5,global,reloc=2,class=CODE,delta=1
    23                           	psect	text6,global,reloc=2,class=CODE,delta=1
    24                           	psect	text7,global,reloc=2,class=CODE,delta=1
    25                           	psect	text8,global,reloc=2,class=CODE,delta=1
    26                           	psect	text9,global,reloc=2,class=CODE,delta=1
    27                           	psect	text10,global,reloc=2,class=CODE,delta=1
    28                           	psect	text11,global,reloc=2,class=CODE,delta=1
    29                           	psect	text12,global,reloc=2,class=CODE,delta=1
    30                           	psect	text13,global,reloc=2,class=CODE,delta=1
    31                           	psect	text14,global,reloc=2,class=CODE,delta=1
    32                           	psect	text15,global,reloc=2,class=CODE,delta=1
    33                           	psect	text16,global,reloc=2,class=CODE,delta=1
    34                           	psect	text17,global,reloc=2,class=CODE,delta=1
    35                           	psect	text18,global,reloc=2,class=CODE,delta=1
    36                           	psect	text19,global,reloc=2,class=CODE,delta=1
    37                           	psect	text20,global,reloc=2,class=CODE,delta=1
    38                           	psect	text21,global,reloc=2,class=CODE,delta=1
    39                           	psect	text22,global,reloc=2,class=CODE,delta=1
    40                           	psect	text23,global,reloc=2,class=CODE,delta=1
    41                           	psect	text24,global,reloc=2,class=CODE,delta=1
    42                           	psect	text25,global,reloc=2,class=CODE,delta=1
    43                           	psect	text26,global,reloc=2,class=CODE,delta=1
    44                           	psect	text27,global,reloc=2,class=CODE,delta=1
    45                           	psect	text28,global,reloc=2,class=CODE,delta=1
    46                           	psect	text29,global,reloc=2,class=CODE,delta=1
    47                           	psect	intsave_regs,global,class=BIGRAM,space=1,delta=1
    48                           	psect	rparam,global,class=COMRAM,space=1,delta=1
    49  0000                     
    50                           	psect	idataCOMRAM
    51  0025BE                     __pidataCOMRAM:
    52                           	opt stack 0
    53                           
    54                           ;initializer for _a
    55  0025BE  0001               	dw	1
    56                           
    57                           	psect	idataBANK0
    58  002592                     __pidataBANK0:
    59                           	opt stack 0
    60                           
    61                           ;initializer for SENO_GENERAR_1@F7356
    62  002592  0010               	dw	16
    63  002594  0019               	dw	25
    64  002596  001E               	dw	30
    65  002598  001E               	dw	30
    66  00259A  0019               	dw	25
    67  00259C  0010               	dw	16
    68  00259E  0006               	dw	6
    69  0025A0  0001               	dw	1
    70  0025A2  0001               	dw	1
    71  0025A4  0006               	dw	6
    72                           
    73                           	psect	idataBANK1
    74  001C7E                     __pidataBANK1:
    75                           	opt stack 0
    76                           
    77                           ;initializer for SENO_GENERAR_3@F7366
    78  001C7E  0010               	dw	16
    79  001C80  0011               	dw	17
    80  001C82  0013               	dw	19
    81  001C84  0015               	dw	21
    82  001C86  0017               	dw	23
    83  001C88  0019               	dw	25
    84  001C8A  001A               	dw	26
    85  001C8C  001B               	dw	27
    86  001C8E  001D               	dw	29
    87  001C90  001E               	dw	30
    88  001C92  001E               	dw	30
    89  001C94  001F               	dw	31
    90  001C96  001F               	dw	31
    91  001C98  001F               	dw	31
    92  001C9A  001F               	dw	31
    93  001C9C  001E               	dw	30
    94  001C9E  001E               	dw	30
    95  001CA0  001D               	dw	29
    96  001CA2  001B               	dw	27
    97  001CA4  001A               	dw	26
    98  001CA6  0019               	dw	25
    99  001CA8  0017               	dw	23
   100  001CAA  0015               	dw	21
   101  001CAC  0013               	dw	19
   102  001CAE  0011               	dw	17
   103  001CB0  0010               	dw	16
   104  001CB2  000E               	dw	14
   105  001CB4  000C               	dw	12
   106  001CB6  000A               	dw	10
   107  001CB8  0008               	dw	8
   108  001CBA  0006               	dw	6
   109  001CBC  0005               	dw	5
   110  001CBE  0004               	dw	4
   111  001CC0  0002               	dw	2
   112  001CC2  0001               	dw	1
   113  001CC4  0001               	dw	1
   114  001CC6  0000               	dw	0
   115  001CC8  0000               	dw	0
   116  001CCA  0000               	dw	0
   117  001CCC  0000               	dw	0
   118  001CCE  0001               	dw	1
   119  001CD0  0001               	dw	1
   120  001CD2  0002               	dw	2
   121  001CD4  0004               	dw	4
   122  001CD6  0005               	dw	5
   123  001CD8  0006               	dw	6
   124  001CDA  0008               	dw	8
   125  001CDC  000A               	dw	10
   126  001CDE  000C               	dw	12
   127  001CE0  000E               	dw	14
   128                           
   129                           ;initializer for SENO_GENERAR_2@F7361
   130  001CE2  0010               	dw	16
   131  001CE4  0013               	dw	19
   132  001CE6  0017               	dw	23
   133  001CE8  001A               	dw	26
   134  001CEA  001D               	dw	29
   135  001CEC  001E               	dw	30
   136  001CEE  001F               	dw	31
   137  001CF0  001F               	dw	31
   138  001CF2  001E               	dw	30
   139  001CF4  001B               	dw	27
   140  001CF6  0019               	dw	25
   141  001CF8  0015               	dw	21
   142  001CFA  0011               	dw	17
   143  001CFC  000E               	dw	14
   144  001CFE  000A               	dw	10
   145  001D00  0006               	dw	6
   146  001D02  0004               	dw	4
   147  001D04  0001               	dw	1
   148  001D06  0000               	dw	0
   149  001D08  0000               	dw	0
   150  001D0A  0001               	dw	1
   151  001D0C  0002               	dw	2
   152  001D0E  0005               	dw	5
   153  001D10  0008               	dw	8
   154  001D12  000C               	dw	12
   155                           
   156                           ;initializer for TRIANGULAR_GENERAR_3@F7366
   157  001D14  0003               	dw	3
   158  001D16  0006               	dw	6
   159  001D18  0009               	dw	9
   160  001D1A  000C               	dw	12
   161  001D1C  0010               	dw	16
   162  001D1E  0013               	dw	19
   163  001D20  0016               	dw	22
   164  001D22  0019               	dw	25
   165  001D24  001C               	dw	28
   166  001D26  001F               	dw	31
   167  001D28  001C               	dw	28
   168  001D2A  0019               	dw	25
   169  001D2C  0016               	dw	22
   170  001D2E  0013               	dw	19
   171  001D30  0010               	dw	16
   172  001D32  000C               	dw	12
   173  001D34  0009               	dw	9
   174  001D36  0006               	dw	6
   175  001D38  0003               	dw	3
   176  001D3A  0000               	dw	0
   177                           
   178                           ;initializer for TRIANGULAR_GENERAR_2@F7361
   179  001D3C  0004               	dw	4
   180  001D3E  0008               	dw	8
   181  001D40  000C               	dw	12
   182  001D42  0011               	dw	17
   183  001D44  0015               	dw	21
   184  001D46  0019               	dw	25
   185  001D48  001D               	dw	29
   186  001D4A  001F               	dw	31
   187  001D4C  001D               	dw	29
   188  001D4E  0019               	dw	25
   189  001D50  0015               	dw	21
   190  001D52  0011               	dw	17
   191  001D54  000C               	dw	12
   192  001D56  0008               	dw	8
   193  001D58  0004               	dw	4
   194                           
   195                           ;initializer for TRIANGULAR_GENERAR_1@F7356
   196  001D5A  0006               	dw	6
   197  001D5C  000C               	dw	12
   198  001D5E  0013               	dw	19
   199  001D60  0019               	dw	25
   200  001D62  001F               	dw	31
   201  001D64  0019               	dw	25
   202  001D66  0013               	dw	19
   203  001D68  000C               	dw	12
   204  001D6A  0006               	dw	6
   205  001D6C  0000               	dw	0
   206  0000                     _ANSELA	set	3931
   207  0000                     _ANSELC	set	3933
   208  0000                     _ANSELD	set	3934
   209  0000                     _CCP2CON	set	3991
   210  0000                     _CCPR2L	set	3984
   211  0000                     _LATA	set	3977
   212  0000                     _LATAbits	set	3977
   213  0000                     _OSCCON	set	4051
   214  0000                     _PORTA	set	3968
   215  0000                     _PORTAbits	set	3968
   216  0000                     _PORTDbits	set	3971
   217  0000                     _PR2	set	4027
   218  0000                     _T2CON	set	4026
   219  0000                     _T2CONbits	set	4026
   220  0000                     _TMR2	set	4028
   221  0000                     _TRISA	set	3986
   222  0000                     _TRISCbits	set	3988
   223  0000                     _TRISDbits	set	3989
   224  0000                     _VREFCON1	set	3964
   225  0000                     _VREFCON2bits	set	3963
   226                           
   227                           	psect	smallconst
   228  000800                     __psmallconst:
   229                           	opt stack 0
   230  000800  00                 	db	0
   231  000801                     __stringdata:
   232                           	opt stack 0
   233  000801                     STR_1:
   234  000801  55                 	db	85	;'U'
   235  000802  6E                 	db	110	;'n'
   236  000803  69                 	db	105	;'i'
   237  000804  76                 	db	118	;'v'
   238  000805  65                 	db	101	;'e'
   239  000806  72                 	db	114	;'r'
   240  000807  73                 	db	115	;'s'
   241  000808  69                 	db	105	;'i'
   242  000809  64                 	db	100	;'d'
   243  00080A  61                 	db	97	;'a'
   244  00080B  64                 	db	100	;'d'
   245  00080C  20                 	db	32
   246  00080D  64                 	db	100	;'d'
   247  00080E  65                 	db	101	;'e'
   248  00080F  20                 	db	32
   249  000810  00                 	db	0
   250  000811                     STR_3:
   251  000811  50                 	db	80	;'P'
   252  000812  72                 	db	114	;'r'
   253  000813  6F                 	db	111	;'o'
   254  000814  79                 	db	121	;'y'
   255  000815  65                 	db	101	;'e'
   256  000816  63                 	db	99	;'c'
   257  000817  74                 	db	116	;'t'
   258  000818  6F                 	db	111	;'o'
   259  000819  20                 	db	32
   260  00081A  46                 	db	70	;'F'
   261  00081B  69                 	db	105	;'i'
   262  00081C  6E                 	db	110	;'n'
   263  00081D  61                 	db	97	;'a'
   264  00081E  6C                 	db	108	;'l'
   265  00081F  00                 	db	0
   266  000820                     STR_37:
   267  000820  41                 	db	65	;'A'
   268  000821  2E                 	db	46
   269  000822  2D                 	db	45
   270  000823  46                 	db	70	;'F'
   271  000824  72                 	db	114	;'r'
   272  000825  65                 	db	101	;'e'
   273  000826  63                 	db	99	;'c'
   274  000827  75                 	db	117	;'u'
   275  000828  65                 	db	101	;'e'
   276  000829  6E                 	db	110	;'n'
   277  00082A  63                 	db	99	;'c'
   278  00082B  69                 	db	105	;'i'
   279  00082C  61                 	db	97	;'a'
   280  00082D  00                 	db	0
   281  00082E                     STR_11:
   282  00082E  49                 	db	73	;'I'
   283  00082F  6E                 	db	110	;'n'
   284  000830  67                 	db	103	;'g'
   285  000831  72                 	db	114	;'r'
   286  000832  65                 	db	101	;'e'
   287  000833  73                 	db	115	;'s'
   288  000834  65                 	db	101	;'e'
   289  000835  20                 	db	32
   290  000836  63                 	db	99	;'c'
   291  000837  69                 	db	105	;'i'
   292  000838  63                 	db	99	;'c'
   293  000839  6C                 	db	108	;'l'
   294  00083A  6F                 	db	111	;'o'
   295  00083B  00                 	db	0
   296  00083C                     STR_7:
   297  00083C  43                 	db	67	;'C'
   298  00083D  2E                 	db	46
   299  00083E  2D                 	db	45
   300  00083F  54                 	db	84	;'T'
   301  000840  72                 	db	114	;'r'
   302  000841  69                 	db	105	;'i'
   303  000842  61                 	db	97	;'a'
   304  000843  6E                 	db	110	;'n'
   305  000844  67                 	db	103	;'g'
   306  000845  75                 	db	117	;'u'
   307  000846  6C                 	db	108	;'l'
   308  000847  61                 	db	97	;'a'
   309  000848  72                 	db	114	;'r'
   310  000849  00                 	db	0
   311  00084A                     STR_10:
   312  00084A  46                 	db	70	;'F'
   313  00084B  72                 	db	114	;'r'
   314  00084C  65                 	db	101	;'e'
   315  00084D  63                 	db	99	;'c'
   316  00084E  75                 	db	117	;'u'
   317  00084F  65                 	db	101	;'e'
   318  000850  6E                 	db	110	;'n'
   319  000851  63                 	db	99	;'c'
   320  000852  69                 	db	105	;'i'
   321  000853  61                 	db	97	;'a'
   322  000854  3A                 	db	58	;':'
   323  000855  00                 	db	0
   324  000856                     STR_5:
   325  000856  41                 	db	65	;'A'
   326  000857  2E                 	db	46
   327  000858  2D                 	db	45
   328  000859  43                 	db	67	;'C'
   329  00085A  75                 	db	117	;'u'
   330  00085B  61                 	db	97	;'a'
   331  00085C  64                 	db	100	;'d'
   332  00085D  72                 	db	114	;'r'
   333  00085E  61                 	db	97	;'a'
   334  00085F  64                 	db	100	;'d'
   335  000860  61                 	db	97	;'a'
   336  000861  00                 	db	0
   337  000862                     STR_6:
   338  000862  42                 	db	66	;'B'
   339  000863  2E                 	db	46
   340  000864  2D                 	db	45
   341  000865  53                 	db	83	;'S'
   342  000866  65                 	db	101	;'e'
   343  000867  6E                 	db	110	;'n'
   344  000868  6F                 	db	111	;'o'
   345  000869  69                 	db	105	;'i'
   346  00086A  64                 	db	100	;'d'
   347  00086B  61                 	db	97	;'a'
   348  00086C  6C                 	db	108	;'l'
   349  00086D  00                 	db	0
   350  00086E                     STR_9:
   351  00086E  32                 	db	50	;'2'
   352  00086F  2E                 	db	46
   353  000870  2D                 	db	45
   354  000871  43                 	db	67	;'C'
   355  000872  6F                 	db	111	;'o'
   356  000873  6D                 	db	109	;'m'
   357  000874  65                 	db	101	;'e'
   358  000875  6E                 	db	110	;'n'
   359  000876  7A                 	db	122	;'z'
   360  000877  61                 	db	97	;'a'
   361  000878  72                 	db	114	;'r'
   362  000879  00                 	db	0
   363  00087A                     STR_23:
   364  00087A  41                 	db	65	;'A'
   365  00087B  2E                 	db	46
   366  00087C  2D                 	db	45
   367  00087D  53                 	db	83	;'S'
   368  00087E  65                 	db	101	;'e'
   369  00087F  6E                 	db	110	;'n'
   370  000880  61                 	db	97	;'a'
   371  000881  6C                 	db	108	;'l'
   372  000882  20                 	db	32
   373  000883  31                 	db	49	;'1'
   374  000884  00                 	db	0
   375  000885                     STR_24:
   376  000885  42                 	db	66	;'B'
   377  000886  2E                 	db	46
   378  000887  2D                 	db	45
   379  000888  53                 	db	83	;'S'
   380  000889  65                 	db	101	;'e'
   381  00088A  F1                 	db	-15
   382  00088B  61                 	db	97	;'a'
   383  00088C  6C                 	db	108	;'l'
   384  00088D  20                 	db	32
   385  00088E  32                 	db	50	;'2'
   386  00088F  00                 	db	0
   387  000890                     STR_27:
   388  000890  42                 	db	66	;'B'
   389  000891  2E                 	db	46
   390  000892  2D                 	db	45
   391  000893  53                 	db	83	;'S'
   392  000894  65                 	db	101	;'e'
   393  000895  6E                 	db	110	;'n'
   394  000896  61                 	db	97	;'a'
   395  000897  6C                 	db	108	;'l'
   396  000898  20                 	db	32
   397  000899  32                 	db	50	;'2'
   398  00089A  00                 	db	0
   399  00089B                     STR_25:
   400  00089B  43                 	db	67	;'C'
   401  00089C  2E                 	db	46
   402  00089D  2D                 	db	45
   403  00089E  53                 	db	83	;'S'
   404  00089F  65                 	db	101	;'e'
   405  0008A0  6E                 	db	110	;'n'
   406  0008A1  61                 	db	97	;'a'
   407  0008A2  6C                 	db	108	;'l'
   408  0008A3  20                 	db	32
   409  0008A4  33                 	db	51	;'3'
   410  0008A5  00                 	db	0
   411  0008A6                     STR_2:
   412  0008A6  47                 	db	71	;'G'
   413  0008A7  75                 	db	117	;'u'
   414  0008A8  61                 	db	97	;'a'
   415  0008A9  6E                 	db	110	;'n'
   416  0008AA  61                 	db	97	;'a'
   417  0008AB  6A                 	db	106	;'j'
   418  0008AC  75                 	db	117	;'u'
   419  0008AD  61                 	db	97	;'a'
   420  0008AE  74                 	db	116	;'t'
   421  0008AF  6F                 	db	111	;'o'
   422  0008B0  00                 	db	0
   423  0008B1                     STR_4:
   424  0008B1  47                 	db	71	;'G'
   425  0008B2  65                 	db	101	;'e'
   426  0008B3  6E                 	db	110	;'n'
   427  0008B4  65                 	db	101	;'e'
   428  0008B5  72                 	db	114	;'r'
   429  0008B6  61                 	db	97	;'a'
   430  0008B7  64                 	db	100	;'d'
   431  0008B8  6F                 	db	111	;'o'
   432  0008B9  72                 	db	114	;'r'
   433  0008BA  00                 	db	0
   434  0008BB                     STR_38:
   435  0008BB  42                 	db	66	;'B'
   436  0008BC  2E                 	db	46
   437  0008BD  2D                 	db	45
   438  0008BE  43                 	db	67	;'C'
   439  0008BF  69                 	db	105	;'i'
   440  0008C0  63                 	db	99	;'c'
   441  0008C1  6C                 	db	108	;'l'
   442  0008C2  6F                 	db	111	;'o'
   443  0008C3  00                 	db	0
   444  0008C4                     STR_8:
   445  0008C4  31                 	db	49	;'1'
   446  0008C5  2E                 	db	46
   447  0008C6  2D                 	db	45
   448  0008C7  44                 	db	68	;'D'
   449  0008C8  61                 	db	97	;'a'
   450  0008C9  74                 	db	116	;'t'
   451  0008CA  6F                 	db	111	;'o'
   452  0008CB  73                 	db	115	;'s'
   453  0008CC  00                 	db	0
   454  0008CD                     STR_14:
   455  0008CD  43                 	db	67	;'C'
   456  0008CE  69                 	db	105	;'i'
   457  0008CF  63                 	db	99	;'c'
   458  0008D0  6C                 	db	108	;'l'
   459  0008D1  6F                 	db	111	;'o'
   460  0008D2  3A                 	db	58	;':'
   461  0008D3  20                 	db	32
   462  0008D4  00                 	db	0
   463  0008D5                     STR_12:
   464  0008D5  46                 	db	70	;'F'
   465  0008D6  72                 	db	114	;'r'
   466  0008D7  65                 	db	101	;'e'
   467  0008D8  3A                 	db	58	;':'
   468  0008D9  20                 	db	32
   469  0008DA  00                 	db	0
   470  0008DB                     STR_43:
   471  0008DB  41                 	db	65	;'A'
   472  0008DC  64                 	db	100	;'d'
   473  0008DD  69                 	db	105	;'i'
   474  0008DE  6F                 	db	111	;'o'
   475  0008DF  73                 	db	115	;'s'
   476  0008E0  00                 	db	0
   477  0008E1                     STR_13:
   478  0008E1  48                 	db	72	;'H'
   479  0008E2  7A                 	db	122	;'z'
   480  0008E3  00                 	db	0
   481  0008E4                     STR_15:
   482  0008E4  25                 	db	37
   483  0008E5  00                 	db	0
   484  0008E6                     __end_of__stringdata:
   485                           	opt stack 0
   486                           
   487                           ; #config settings
   488  0008E6  00                 	db	0	; dummy byte at the end
   489  0000                     
   490                           	psect	cinit
   491  0020B4                     __pcinit:
   492                           	opt stack 0
   493  0020B4                     start_initialization:
   494                           	opt stack 0
   495  0020B4                     __initialization:
   496                           	opt stack 0
   497                           
   498                           ; Clear objects allocated to BANK0 (30 bytes)
   499  0020B4  EE00  F0C6         	lfsr	0,__pbssBANK0
   500  0020B8  0E1E               	movlw	30
   501  0020BA                     clear_0:
   502  0020BA  6AEE               	clrf	postinc0,c
   503  0020BC  06E8               	decf	wreg,f,c
   504  0020BE  E1FD               	bnz	clear_0
   505                           
   506                           ; Clear objects allocated to COMRAM (32 bytes)
   507  0020C0  EE00  F03E         	lfsr	0,__pbssCOMRAM
   508  0020C4  0E20               	movlw	32
   509  0020C6                     clear_1:
   510  0020C6  6AEE               	clrf	postinc0,c
   511  0020C8  06E8               	decf	wreg,f,c
   512  0020CA  E1FD               	bnz	clear_1
   513                           
   514                           ; Initialize objects allocated to BANK1 (240 bytes)
   515                           ; load TBLPTR registers with __pidataBANK1
   516  0020CC  0E7E               	movlw	low __pidataBANK1
   517  0020CE  6EF6               	movwf	tblptrl,c
   518  0020D0  0E1C               	movlw	high __pidataBANK1
   519  0020D2  6EF7               	movwf	tblptrh,c
   520  0020D4  0E00               	movlw	low (__pidataBANK1 shr (0+16))
   521  0020D6  6EF8               	movwf	tblptru,c
   522  0020D8  EE01  F000         	lfsr	0,__pdataBANK1
   523  0020DC  EE10 F0F0          	lfsr	1,240
   524  0020E0                     copy_data0:
   525  0020E0  0009               	tblrd		*+
   526  0020E2  CFF5 FFEE          	movff	tablat,postinc0
   527  0020E6  50E5               	movf	postdec1,w,c
   528  0020E8  50E1               	movf	fsr1l,w,c
   529  0020EA  E1FA               	bnz	copy_data0
   530                           
   531                           ; Initialize objects allocated to BANK0 (20 bytes)
   532                           ; load TBLPTR registers with __pidataBANK0
   533  0020EC  0E92               	movlw	low __pidataBANK0
   534  0020EE  6EF6               	movwf	tblptrl,c
   535  0020F0  0E25               	movlw	high __pidataBANK0
   536  0020F2  6EF7               	movwf	tblptrh,c
   537  0020F4  0E00               	movlw	low (__pidataBANK0 shr (0+16))
   538  0020F6  6EF8               	movwf	tblptru,c
   539  0020F8  EE00  F0E4         	lfsr	0,__pdataBANK0
   540  0020FC  EE10 F014          	lfsr	1,20
   541  002100                     copy_data1:
   542  002100  0009               	tblrd		*+
   543  002102  CFF5 FFEE          	movff	tablat,postinc0
   544  002106  50E5               	movf	postdec1,w,c
   545  002108  50E1               	movf	fsr1l,w,c
   546  00210A  E1FA               	bnz	copy_data1
   547                           
   548                           ; Initialize objects allocated to COMRAM (2 bytes)
   549                           ; load TBLPTR registers with __pidataCOMRAM
   550  00210C  0EBE               	movlw	low __pidataCOMRAM
   551  00210E  6EF6               	movwf	tblptrl,c
   552  002110  0E25               	movlw	high __pidataCOMRAM
   553  002112  6EF7               	movwf	tblptrh,c
   554  002114  0E00               	movlw	low (__pidataCOMRAM shr (0+16))
   555  002116  6EF8               	movwf	tblptru,c
   556  002118  0009               	tblrd		*+	;fetch initializer
   557  00211A  CFF5 F05E          	movff	tablat,__pdataCOMRAM
   558  00211E  0009               	tblrd		*+	;fetch initializer
   559  002120  CFF5 F05F          	movff	tablat,__pdataCOMRAM+1
   560  002124                     end_of_initialization:
   561                           	opt stack 0
   562  002124                     __end_of__initialization:
   563                           	opt stack 0
   564  002124  0E00               	movlw	low (__Lmediumconst shr (0+16))
   565  002126  6EF8               	movwf	tblptru,c
   566  002128  0100               	movlb	0
   567  00212A  EF74  F004         	goto	_main	;jump to C main() function
   568                           tblptru	equ	0xFF8
   569                           tblptrh	equ	0xFF7
   570                           tblptrl	equ	0xFF6
   571                           tablat	equ	0xFF5
   572                           postinc0	equ	0xFEE
   573                           wreg	equ	0xFE8
   574                           postdec1	equ	0xFE5
   575                           fsr1l	equ	0xFE1
   576                           
   577                           	psect	bssCOMRAM
   578  00003E                     __pbssCOMRAM:
   579                           	opt stack 0
   580  00003E                     _d:
   581                           	opt stack 0
   582  00003E                     	ds	2
   583  000040                     _e:
   584                           	opt stack 0
   585  000040                     	ds	2
   586  000042                     _f:
   587                           	opt stack 0
   588  000042                     	ds	2
   589  000044                     _g:
   590                           	opt stack 0
   591  000044                     	ds	2
   592  000046                     _q:
   593                           	opt stack 0
   594  000046                     	ds	2
   595  000048                     _r:
   596                           	opt stack 0
   597  000048                     	ds	2
   598  00004A                     _s:
   599                           	opt stack 0
   600  00004A                     	ds	2
   601  00004C                     _t:
   602                           	opt stack 0
   603  00004C                     	ds	2
   604  00004E                     _w:
   605                           	opt stack 0
   606  00004E                     	ds	2
   607  000050                     _cantidad:
   608                           	opt stack 0
   609  000050                     	ds	1
   610  000051                     _columna:
   611                           	opt stack 0
   612  000051                     	ds	1
   613  000052                     _fila:
   614                           	opt stack 0
   615  000052                     	ds	1
   616  000053                     _key:
   617                           	opt stack 0
   618  000053                     	ds	1
   619  000054                     _cadena:
   620                           	opt stack 0
   621  000054                     	ds	10
   622                           tblptru	equ	0xFF8
   623                           tblptrh	equ	0xFF7
   624                           tblptrl	equ	0xFF6
   625                           tablat	equ	0xFF5
   626                           postinc0	equ	0xFEE
   627                           wreg	equ	0xFE8
   628                           postdec1	equ	0xFE5
   629                           fsr1l	equ	0xFE1
   630                           
   631                           	psect	dataCOMRAM
   632  00005E                     __pdataCOMRAM:
   633                           	opt stack 0
   634  00005E                     _a:
   635                           	opt stack 0
   636  00005E                     	ds	2
   637                           tblptru	equ	0xFF8
   638                           tblptrh	equ	0xFF7
   639                           tblptrl	equ	0xFF6
   640                           tablat	equ	0xFF5
   641                           postinc0	equ	0xFEE
   642                           wreg	equ	0xFE8
   643                           postdec1	equ	0xFE5
   644                           fsr1l	equ	0xFE1
   645                           
   646                           	psect	bssBANK0
   647  0000C6                     __pbssBANK0:
   648                           	opt stack 0
   649  0000C6                     _cad:
   650                           	opt stack 0
   651  0000C6                     	ds	10
   652  0000D0                     _ciclo:
   653                           	opt stack 0
   654  0000D0                     	ds	10
   655  0000DA                     _frecuencia:
   656                           	opt stack 0
   657  0000DA                     	ds	10
   658                           tblptru	equ	0xFF8
   659                           tblptrh	equ	0xFF7
   660                           tblptrl	equ	0xFF6
   661                           tablat	equ	0xFF5
   662                           postinc0	equ	0xFEE
   663                           wreg	equ	0xFE8
   664                           postdec1	equ	0xFE5
   665                           fsr1l	equ	0xFE1
   666                           
   667                           	psect	dataBANK0
   668  0000E4                     __pdataBANK0:
   669                           	opt stack 0
   670  0000E4                     SENO_GENERAR_1@F7356:
   671                           	opt stack 0
   672  0000E4                     	ds	20
   673                           tblptru	equ	0xFF8
   674                           tblptrh	equ	0xFF7
   675                           tblptrl	equ	0xFF6
   676                           tablat	equ	0xFF5
   677                           postinc0	equ	0xFEE
   678                           wreg	equ	0xFE8
   679                           postdec1	equ	0xFE5
   680                           fsr1l	equ	0xFE1
   681                           
   682                           	psect	dataBANK1
   683  000100                     __pdataBANK1:
   684                           	opt stack 0
   685  000100                     SENO_GENERAR_3@F7366:
   686                           	opt stack 0
   687  000100                     	ds	100
   688  000164                     SENO_GENERAR_2@F7361:
   689                           	opt stack 0
   690  000164                     	ds	50
   691  000196                     TRIANGULAR_GENERAR_3@F7366:
   692                           	opt stack 0
   693  000196                     	ds	40
   694  0001BE                     TRIANGULAR_GENERAR_2@F7361:
   695                           	opt stack 0
   696  0001BE                     	ds	30
   697  0001DC                     TRIANGULAR_GENERAR_1@F7356:
   698                           	opt stack 0
   699  0001DC                     	ds	20
   700                           tblptru	equ	0xFF8
   701                           tblptrh	equ	0xFF7
   702                           tblptrl	equ	0xFF6
   703                           tablat	equ	0xFF5
   704                           postinc0	equ	0xFEE
   705                           wreg	equ	0xFE8
   706                           postdec1	equ	0xFE5
   707                           fsr1l	equ	0xFE1
   708                           
   709                           	psect	cstackBANK0
   710  000060                     __pcstackBANK0:
   711                           	opt stack 0
   712  000060                     SENO_GENERAR_3@valoresSeno:
   713                           	opt stack 0
   714                           
   715                           ; 100 bytes @ 0x0
   716  000060                     	ds	100
   717  0000C4                     SENO_GENERAR_3@i:
   718                           	opt stack 0
   719                           
   720                           ; 2 bytes @ 0x64
   721  0000C4                     	ds	2
   722                           tblptru	equ	0xFF8
   723                           tblptrh	equ	0xFF7
   724                           tblptrl	equ	0xFF6
   725                           tablat	equ	0xFF5
   726                           postinc0	equ	0xFEE
   727                           wreg	equ	0xFE8
   728                           postdec1	equ	0xFE5
   729                           fsr1l	equ	0xFE1
   730                           
   731                           	psect	cstackCOMRAM
   732  000001                     __pcstackCOMRAM:
   733                           	opt stack 0
   734  000001                     ??_Lcd_Cmd:
   735  000001                     ??_Lcd_Chr_CP:
   736  000001                     ??_TRIANGULAR_GENERAR_1:
   737  000001                     ??_TRIANGULAR_GENERAR_2:
   738  000001                     ??_TRIANGULAR_GENERAR_3:
   739  000001                     ??_SENO_GENERAR_1:
   740  000001                     ??_SENO_GENERAR_2:
   741  000001                     ??_SENO_GENERAR_3:
   742  000001                     ??_isdigit:
   743  000001                     ??_tm_1s:
   744  000001                     ??_READ_SWITCHES:
   745  000001                     ?___wmul:
   746                           	opt stack 0
   747  000001                     ?___lmul:
   748                           	opt stack 0
   749  000001                     ?___aldiv:
   750                           	opt stack 0
   751  000001                     ?___almod:
   752                           	opt stack 0
   753  000001                     ?___lldiv:
   754                           	opt stack 0
   755  000001                     ___wmul@multiplier:
   756                           	opt stack 0
   757  000001                     ___lmul@multiplier:
   758                           	opt stack 0
   759  000001                     ___aldiv@dividend:
   760                           	opt stack 0
   761  000001                     ___almod@dividend:
   762                           	opt stack 0
   763  000001                     ___lldiv@dividend:
   764                           	opt stack 0
   765                           
   766                           ; 4 bytes @ 0x0
   767  000001                     	ds	1
   768  000002                     Recuperar@key:
   769                           	opt stack 0
   770  000002                     _isdigit$933:
   771                           	opt stack 0
   772                           
   773                           ; 1 bytes @ 0x1
   774  000002                     	ds	1
   775  000003                     Lcd_Chr_CP@data:
   776                           	opt stack 0
   777  000003                     Lcd_Cmd@data:
   778                           	opt stack 0
   779  000003                     isdigit@c:
   780                           	opt stack 0
   781  000003                     ___wmul@multiplicand:
   782                           	opt stack 0
   783                           
   784                           ; 2 bytes @ 0x2
   785  000003                     	ds	1
   786  000004                     ??_Lcd_Init:
   787  000004                     Lcd_Out@x:
   788                           	opt stack 0
   789  000004                     Lcd_Out2@x:
   790                           	opt stack 0
   791  000004                     lcd_goto@x:
   792                           	opt stack 0
   793  000004                     SENO_GENERAR_1@valoresSeno:
   794                           	opt stack 0
   795  000004                     TRIANGULAR_GENERAR_1@valoresTrian:
   796                           	opt stack 0
   797  000004                     TRIANGULAR_GENERAR_2@valoresTrian:
   798                           	opt stack 0
   799  000004                     TRIANGULAR_GENERAR_3@valoresTrian:
   800                           	opt stack 0
   801  000004                     SENO_GENERAR_2@valoresSeno:
   802                           	opt stack 0
   803                           
   804                           ; 50 bytes @ 0x3
   805  000004                     	ds	1
   806  000005                     Lcd_Init@data:
   807                           	opt stack 0
   808  000005                     Lcd_Out@buffer:
   809                           	opt stack 0
   810  000005                     Lcd_Out2@buffer:
   811                           	opt stack 0
   812  000005                     ___wmul@product:
   813                           	opt stack 0
   814  000005                     ___lmul@multiplicand:
   815                           	opt stack 0
   816  000005                     ___aldiv@divisor:
   817                           	opt stack 0
   818  000005                     ___almod@divisor:
   819                           	opt stack 0
   820  000005                     ___lldiv@divisor:
   821                           	opt stack 0
   822                           
   823                           ; 4 bytes @ 0x4
   824  000005                     	ds	1
   825  000006                     lcd_goto@y:
   826                           	opt stack 0
   827                           
   828                           ; 2 bytes @ 0x5
   829  000006                     	ds	1
   830  000007                     ?_atoi:
   831                           	opt stack 0
   832  000007                     Lcd_Out@y:
   833                           	opt stack 0
   834  000007                     Lcd_Out2@y:
   835                           	opt stack 0
   836  000007                     atoi@s:
   837                           	opt stack 0
   838                           
   839                           ; 2 bytes @ 0x6
   840  000007                     	ds	1
   841  000008                     ??_lcd_goto:
   842  000008                     Lcd_Out@data:
   843                           	opt stack 0
   844  000008                     Lcd_Out2@data:
   845                           	opt stack 0
   846                           
   847                           ; 1 bytes @ 0x7
   848  000008                     	ds	1
   849  000009                     ??_atoi:
   850  000009                     ___aldiv@counter:
   851                           	opt stack 0
   852  000009                     ___almod@counter:
   853                           	opt stack 0
   854  000009                     Imprimir_pantalla@N:
   855                           	opt stack 0
   856  000009                     ___lmul@product:
   857                           	opt stack 0
   858  000009                     ___lldiv@quotient:
   859                           	opt stack 0
   860                           
   861                           ; 4 bytes @ 0x8
   862  000009                     	ds	1
   863  00000A                     lcd_goto@data:
   864                           	opt stack 0
   865  00000A                     ___aldiv@sign:
   866                           	opt stack 0
   867  00000A                     ___almod@sign:
   868                           	opt stack 0
   869                           
   870                           ; 1 bytes @ 0x9
   871  00000A                     	ds	1
   872  00000B                     Imprimir_pantalla@fila:
   873                           	opt stack 0
   874  00000B                     atoi@sign:
   875                           	opt stack 0
   876  00000B                     Tec@cadena:
   877                           	opt stack 0
   878  00000B                     ___aldiv@quotient:
   879                           	opt stack 0
   880                           
   881                           ; 4 bytes @ 0xA
   882  00000B                     	ds	1
   883  00000C                     Imprimir_pantalla@columna:
   884                           	opt stack 0
   885  00000C                     atoi@a:
   886                           	opt stack 0
   887                           
   888                           ; 2 bytes @ 0xB
   889  00000C                     	ds	1
   890  00000D                     ___lldiv@counter:
   891                           	opt stack 0
   892  00000D                     Tec@i:
   893                           	opt stack 0
   894                           
   895                           ; 2 bytes @ 0xC
   896  00000D                     	ds	1
   897  00000E                     PWM_generar@duty:
   898                           	opt stack 0
   899                           
   900                           ; 2 bytes @ 0xD
   901  00000E                     	ds	1
   902  00000F                     ?_Conv_Entero:
   903                           	opt stack 0
   904  00000F                     Tec@aux:
   905                           	opt stack 0
   906  00000F                     Conv_Entero@numero:
   907                           	opt stack 0
   908                           
   909                           ; 4 bytes @ 0xE
   910  00000F                     	ds	1
   911  000010                     Tec@contador:
   912                           	opt stack 0
   913  000010                     PWM_generar@fpwm:
   914                           	opt stack 0
   915                           
   916                           ; 2 bytes @ 0xF
   917  000010                     	ds	2
   918  000012                     ??_PWM_generar:
   919  000012                     Tec@j:
   920                           	opt stack 0
   921                           
   922                           ; 2 bytes @ 0x11
   923  000012                     	ds	1
   924  000013                     Conv_Entero@conv:
   925                           	opt stack 0
   926                           
   927                           ; 2 bytes @ 0x12
   928  000013                     	ds	1
   929  000014                     Tec@Key:
   930                           	opt stack 0
   931                           
   932                           ; 1 bytes @ 0x13
   933  000014                     	ds	1
   934  000015                     ??_Conv_Entero:
   935  000015                     Frecuencia@frecuencia:
   936                           	opt stack 0
   937  000015                     Ciclo@ciclo:
   938                           	opt stack 0
   939                           
   940                           ; 2 bytes @ 0x14
   941  000015                     	ds	1
   942  000016                     PWM_generar@prescalador:
   943                           	opt stack 0
   944                           
   945                           ; 2 bytes @ 0x15
   946  000016                     	ds	1
   947  000017                     
   948                           ; 0 bytes @ 0x16
   949  000017                     	ds	1
   950  000018                     PWM_generar@AuxCCP2CON:
   951                           	opt stack 0
   952  000018                     SENO_GENERAR_1@i:
   953                           	opt stack 0
   954  000018                     TRIANGULAR_GENERAR_1@i:
   955                           	opt stack 0
   956                           
   957                           ; 2 bytes @ 0x17
   958  000018                     	ds	2
   959  00001A                     PWM_generar@PR2cal:
   960                           	opt stack 0
   961  00001A                     Conv_Entero@convTemp:
   962                           	opt stack 0
   963                           
   964                           ; 21 bytes @ 0x19
   965  00001A                     	ds	4
   966  00001E                     PWM_generar@AuxCCPR2L:
   967                           	opt stack 0
   968                           
   969                           ; 4 bytes @ 0x1D
   970  00001E                     	ds	4
   971  000022                     TRIANGULAR_GENERAR_2@i:
   972                           	opt stack 0
   973                           
   974                           ; 2 bytes @ 0x21
   975  000022                     	ds	10
   976  00002C                     TRIANGULAR_GENERAR_3@i:
   977                           	opt stack 0
   978                           
   979                           ; 2 bytes @ 0x2B
   980  00002C                     	ds	3
   981  00002F                     Conv_Entero@num:
   982                           	opt stack 0
   983                           
   984                           ; 2 bytes @ 0x2E
   985  00002F                     	ds	2
   986  000031                     Conv_Entero@i:
   987                           	opt stack 0
   988                           
   989                           ; 1 bytes @ 0x30
   990  000031                     	ds	1
   991  000032                     Conv_Entero@punteroActual:
   992                           	opt stack 0
   993                           
   994                           ; 2 bytes @ 0x31
   995  000032                     	ds	2
   996  000034                     Conv_Entero@numeroReg:
   997                           	opt stack 0
   998                           
   999                           ; 4 bytes @ 0x33
  1000  000034                     	ds	2
  1001  000036                     SENO_GENERAR_2@i:
  1002                           	opt stack 0
  1003                           
  1004                           ; 2 bytes @ 0x35
  1005  000036                     	ds	2
  1006  000038                     ??_main:
  1007                           
  1008                           ; 0 bytes @ 0x37
  1009  000038                     	ds	1
  1010  000039                     main@zx:
  1011                           	opt stack 0
  1012                           
  1013                           ; 2 bytes @ 0x38
  1014  000039                     	ds	2
  1015  00003B                     main@zx_307:
  1016                           	opt stack 0
  1017                           
  1018                           ; 2 bytes @ 0x3A
  1019  00003B                     	ds	2
  1020  00003D                     main@key:
  1021                           	opt stack 0
  1022                           
  1023                           ; 1 bytes @ 0x3C
  1024  00003D                     	ds	1
  1025                           tblptru	equ	0xFF8
  1026                           tblptrh	equ	0xFF7
  1027                           tblptrl	equ	0xFF6
  1028                           tablat	equ	0xFF5
  1029                           postinc0	equ	0xFEE
  1030                           wreg	equ	0xFE8
  1031                           postdec1	equ	0xFE5
  1032                           fsr1l	equ	0xFE1
  1033                           
  1034 ;;
  1035 ;;Main: autosize = 0, tempsize = 1, incstack = 0, save=0
  1036 ;;
  1037 ;; *************** function _main *****************
  1038 ;; Defined at:
  1039 ;;		line 28 in file "Main.c"
  1040 ;; Parameters:    Size  Location     Type
  1041 ;;		None
  1042 ;; Auto vars:     Size  Location     Type
  1043 ;;  zx              2   58[COMRAM] int 
  1044 ;;  zx              2   56[COMRAM] int 
  1045 ;;  key             1   60[COMRAM] unsigned char 
  1046 ;; Return value:  Size  Location     Type
  1047 ;;		None               void
  1048 ;; Registers used:
  1049 ;;		wreg, fsr0l, fsr0h, fsr1l, fsr1h, fsr2l, fsr2h, status,2, status,0, tblptrl, tblptrh, tblptru, prodl, prodh, cstack
  1050 ;; Tracked objects:
  1051 ;;		On entry : 0/0
  1052 ;;		On exit  : 0/0
  1053 ;;		Unchanged: 0/0
  1054 ;; Data sizes:     COMRAM   BANK0   BANK1   BANK2   BANK3   BANK4   BANK5   BANK6   BANK7
  1055 ;;      Params:         0       0       0       0       0       0       0       0       0
  1056 ;;      Locals:         5       0       0       0       0       0       0       0       0
  1057 ;;      Temps:          1       0       0       0       0       0       0       0       0
  1058 ;;      Totals:         6       0       0       0       0       0       0       0       0
  1059 ;;Total ram usage:        6 bytes
  1060 ;; Hardware stack levels required when called:    4
  1061 ;; This function calls:
  1062 ;;		_Ciclo
  1063 ;;		_Conv_Entero
  1064 ;;		_Frecuencia
  1065 ;;		_Imprimir_pantalla
  1066 ;;		_Lcd_Cmd
  1067 ;;		_Lcd_Init
  1068 ;;		_Lcd_Out
  1069 ;;		_Lcd_Out2
  1070 ;;		_PWM_generar
  1071 ;;		_Recuperar
  1072 ;;		_SENO_GENERAR_1
  1073 ;;		_SENO_GENERAR_2
  1074 ;;		_SENO_GENERAR_3
  1075 ;;		_TRIANGULAR_GENERAR_1
  1076 ;;		_TRIANGULAR_GENERAR_2
  1077 ;;		_TRIANGULAR_GENERAR_3
  1078 ;;		_atoi
  1079 ;;		_int_teclado
  1080 ;;		_tm_1s
  1081 ;; This function is called by:
  1082 ;;		Startup code after reset
  1083 ;; This function uses a non-reentrant model
  1084 ;;
  1085                           
  1086                           	psect	text0
  1087  0008E8                     __ptext0:
  1088                           	opt stack 0
  1089  0008E8                     _main:
  1090                           	opt stack 27
  1091                           
  1092                           ;Main.c: 30: char key;
  1093                           ;Main.c: 32: OSCCON=0b01010111;
  1094                           
  1095                           ;incstack = 0
  1096  0008E8  0E57               	movlw	87
  1097  0008EA  6ED3               	movwf	4051,c	;volatile
  1098                           
  1099                           ;Main.c: 33: ANSELD=0;
  1100  0008EC  0E00               	movlw	0
  1101  0008EE  010F               	movlb	15	; () banked
  1102  0008F0  6F5E               	movwf	94,b	;volatile
  1103                           
  1104                           ;Main.c: 34: TRISA=0xF0 ;
  1105  0008F2  0EF0               	movlw	240
  1106  0008F4  6E92               	movwf	3986,c	;volatile
  1107                           
  1108                           ;Main.c: 35: ANSELA=0;
  1109  0008F6  0E00               	movlw	0
  1110  0008F8  010F               	movlb	15	; () banked
  1111  0008FA  6F5B               	movwf	91,b	;volatile
  1112                           
  1113                           ;Main.c: 36: LATA=0;
  1114  0008FC  0E00               	movlw	0
  1115  0008FE  6E89               	movwf	3977,c	;volatile
  1116                           
  1117                           ; BSR set to: 15
  1118                           ;Main.c: 37: Lcd_Init();
  1119  000900  EC07  F00C         	call	_Lcd_Init	;wreg free
  1120                           
  1121                           ;Main.c: 38: int_teclado();
  1122  000904  ECDA  F012         	call	_int_teclado	;wreg free
  1123  000908                     l3134:
  1124                           
  1125                           ;Main.c: 43: key = Recuperar();
  1126  000908  ECD3  F012         	call	_Recuperar	;wreg free
  1127  00090C  6E3D               	movwf	main@key,c
  1128                           
  1129                           ;Main.c: 47: if(key==' '){
  1130  00090E  503D               	movf	main@key,w,c
  1131  000910  0A20               	xorlw	32
  1132  000912  A4D8               	btfss	status,2,c
  1133  000914  D05B               	goto	l3178
  1134                           
  1135                           ;Main.c: 48: q=1;
  1136  000916  0E00               	movlw	0
  1137  000918  6E47               	movwf	_q+1,c
  1138  00091A  0E01               	movlw	1
  1139  00091C  6E46               	movwf	_q,c
  1140  00091E                     l3140:
  1141                           
  1142                           ;Main.c: 50: int_teclado();
  1143  00091E  ECDA  F012         	call	_int_teclado	;wreg free
  1144                           
  1145                           ;Main.c: 51: Lcd_Init();
  1146  000922  EC07  F00C         	call	_Lcd_Init	;wreg free
  1147                           
  1148                           ;Main.c: 52: Lcd_Cmd(1);
  1149  000926  0E01               	movlw	1
  1150  000928  EC2E  F00D         	call	_Lcd_Cmd
  1151                           
  1152                           ;Main.c: 53: Lcd_Cmd(12);
  1153  00092C  0E0C               	movlw	12
  1154  00092E  EC2E  F00D         	call	_Lcd_Cmd
  1155                           
  1156                           ;Main.c: 54: Lcd_Out2(1,1,"Universidad de ");
  1157  000932  0E01               	movlw	1
  1158  000934  6E04               	movwf	Lcd_Out2@x,c
  1159  000936  0E08               	movlw	high STR_1
  1160  000938  6E06               	movwf	Lcd_Out2@buffer+1,c
  1161  00093A  0E01               	movlw	low STR_1
  1162  00093C  6E05               	movwf	Lcd_Out2@buffer,c
  1163  00093E  0E01               	movlw	1
  1164  000940  EC8A  F00F         	call	_Lcd_Out2
  1165                           
  1166                           ;Main.c: 55: tm_1s();
  1167  000944  ECD2  F00F         	call	_tm_1s	;wreg free
  1168                           
  1169                           ;Main.c: 56: Lcd_Out2(2,3,"Guanajuato");
  1170  000948  0E03               	movlw	3
  1171  00094A  6E04               	movwf	Lcd_Out2@x,c
  1172  00094C  0E08               	movlw	high STR_2
  1173  00094E  6E06               	movwf	Lcd_Out2@buffer+1,c
  1174  000950  0EA6               	movlw	low STR_2
  1175  000952  6E05               	movwf	Lcd_Out2@buffer,c
  1176  000954  0E02               	movlw	2
  1177  000956  EC8A  F00F         	call	_Lcd_Out2
  1178                           
  1179                           ;Main.c: 57: tm_1s();
  1180  00095A  ECD2  F00F         	call	_tm_1s	;wreg free
  1181                           
  1182                           ;Main.c: 58: Lcd_Cmd(1);
  1183  00095E  0E01               	movlw	1
  1184  000960  EC2E  F00D         	call	_Lcd_Cmd
  1185                           
  1186                           ;Main.c: 59: Lcd_Out2(1,1,"Proyecto Final");
  1187  000964  0E01               	movlw	1
  1188  000966  6E04               	movwf	Lcd_Out2@x,c
  1189  000968  0E08               	movlw	high STR_3
  1190  00096A  6E06               	movwf	Lcd_Out2@buffer+1,c
  1191  00096C  0E11               	movlw	low STR_3
  1192  00096E  6E05               	movwf	Lcd_Out2@buffer,c
  1193  000970  0E01               	movlw	1
  1194  000972  EC8A  F00F         	call	_Lcd_Out2
  1195                           
  1196                           ;Main.c: 60: Lcd_Out2(2,3,"Generador");
  1197  000976  0E03               	movlw	3
  1198  000978  6E04               	movwf	Lcd_Out2@x,c
  1199  00097A  0E08               	movlw	high STR_4
  1200  00097C  6E06               	movwf	Lcd_Out2@buffer+1,c
  1201  00097E  0EB1               	movlw	low STR_4
  1202  000980  6E05               	movwf	Lcd_Out2@buffer,c
  1203  000982  0E02               	movlw	2
  1204  000984  EC8A  F00F         	call	_Lcd_Out2
  1205                           
  1206                           ;Main.c: 61: tm_1s();
  1207  000988  ECD2  F00F         	call	_tm_1s	;wreg free
  1208                           
  1209                           ;Main.c: 62: Lcd_Cmd(1);
  1210  00098C  0E01               	movlw	1
  1211  00098E  EC2E  F00D         	call	_Lcd_Cmd
  1212                           
  1213                           ;Main.c: 63: Lcd_Cmd(12);
  1214  000992  0E0C               	movlw	12
  1215  000994  EC2E  F00D         	call	_Lcd_Cmd
  1216                           
  1217                           ;Main.c: 64: _delay((unsigned long)((100)*(4000000/4000.0)));
  1218  000998  0E82               	movlw	130
  1219  00099A  6E38               	movwf	??_main& (0+255),c
  1220  00099C  0EDE               	movlw	222
  1221  00099E                     u3077:
  1222  00099E  2EE8               	decfsz	wreg,f,c
  1223  0009A0  D7FE               	goto	u3077
  1224  0009A2  2E38               	decfsz	??_main& (0+255),f,c
  1225  0009A4  D7FC               	goto	u3077
  1226                           
  1227                           ;Main.c: 65: key=Recuperar();
  1228  0009A6  ECD3  F012         	call	_Recuperar	;wreg free
  1229  0009AA  6E3D               	movwf	main@key,c
  1230                           
  1231                           ;Main.c: 66: if(key=='D' | key=='0'){
  1232  0009AC  503D               	movf	main@key,w,c
  1233  0009AE  0A44               	xorlw	68
  1234  0009B0  B4D8               	btfsc	status,2,c
  1235  0009B2  D004               	goto	l3174
  1236  0009B4  503D               	movf	main@key,w,c
  1237  0009B6  0A30               	xorlw	48
  1238  0009B8  A4D8               	btfss	status,2,c
  1239  0009BA  D004               	goto	l3176
  1240  0009BC                     l3174:
  1241                           
  1242                           ;Main.c: 67: q=0;
  1243  0009BC  0E00               	movlw	0
  1244  0009BE  6E47               	movwf	_q+1,c
  1245  0009C0  0E00               	movlw	0
  1246  0009C2  6E46               	movwf	_q,c
  1247  0009C4                     l3176:
  1248                           
  1249                           ;Main.c: 68: }
  1250                           ;Main.c: 69: }while(q==1);
  1251  0009C4  0446               	decf	_q,w,c
  1252  0009C6  1047               	iorwf	_q+1,w,c
  1253  0009C8  B4D8               	btfsc	status,2,c
  1254  0009CA  D7A9               	goto	l3140
  1255  0009CC                     l3178:
  1256                           
  1257                           ;Main.c: 70: }
  1258                           ;Main.c: 73: if(key=='D'){
  1259  0009CC  503D               	movf	main@key,w,c
  1260  0009CE  0A44               	xorlw	68
  1261  0009D0  A4D8               	btfss	status,2,c
  1262  0009D2  D356               	goto	l3578
  1263                           
  1264                           ;Main.c: 74: key = Recuperar();
  1265  0009D4  ECD3  F012         	call	_Recuperar	;wreg free
  1266  0009D8  6E3D               	movwf	main@key,c
  1267                           
  1268                           ;Main.c: 75: q=1;
  1269  0009DA  0E00               	movlw	0
  1270  0009DC  6E47               	movwf	_q+1,c
  1271  0009DE  0E01               	movlw	1
  1272  0009E0  6E46               	movwf	_q,c
  1273  0009E2                     l3184:
  1274                           
  1275                           ;Main.c: 77: Lcd_Init();
  1276  0009E2  EC07  F00C         	call	_Lcd_Init	;wreg free
  1277                           
  1278                           ;Main.c: 78: Lcd_Cmd(1);
  1279  0009E6  0E01               	movlw	1
  1280  0009E8  EC2E  F00D         	call	_Lcd_Cmd
  1281                           
  1282                           ;Main.c: 79: Lcd_Cmd(12);
  1283  0009EC  0E0C               	movlw	12
  1284  0009EE  EC2E  F00D         	call	_Lcd_Cmd
  1285                           
  1286                           ;Main.c: 80: Lcd_Out2(1,1,"A.-Cuadrada");
  1287  0009F2  0E01               	movlw	1
  1288  0009F4  6E04               	movwf	Lcd_Out2@x,c
  1289  0009F6  0E08               	movlw	high STR_5
  1290  0009F8  6E06               	movwf	Lcd_Out2@buffer+1,c
  1291  0009FA  0E56               	movlw	low STR_5
  1292  0009FC  6E05               	movwf	Lcd_Out2@buffer,c
  1293  0009FE  0E01               	movlw	1
  1294  000A00  EC8A  F00F         	call	_Lcd_Out2
  1295                           
  1296                           ;Main.c: 81: Lcd_Out2(2,1,"B.-Senoidal");
  1297  000A04  0E01               	movlw	1
  1298  000A06  6E04               	movwf	Lcd_Out2@x,c
  1299  000A08  0E08               	movlw	high STR_6
  1300  000A0A  6E06               	movwf	Lcd_Out2@buffer+1,c
  1301  000A0C  0E62               	movlw	low STR_6
  1302  000A0E  6E05               	movwf	Lcd_Out2@buffer,c
  1303  000A10  0E02               	movlw	2
  1304  000A12  EC8A  F00F         	call	_Lcd_Out2
  1305                           
  1306                           ;Main.c: 82: tm_1s();
  1307  000A16  ECD2  F00F         	call	_tm_1s	;wreg free
  1308                           
  1309                           ;Main.c: 83: key = Recuperar();
  1310  000A1A  ECD3  F012         	call	_Recuperar	;wreg free
  1311  000A1E  6E3D               	movwf	main@key,c
  1312                           
  1313                           ;Main.c: 84: Lcd_Init();
  1314  000A20  EC07  F00C         	call	_Lcd_Init	;wreg free
  1315                           
  1316                           ;Main.c: 85: Lcd_Cmd(1);
  1317  000A24  0E01               	movlw	1
  1318  000A26  EC2E  F00D         	call	_Lcd_Cmd
  1319                           
  1320                           ;Main.c: 86: Lcd_Cmd(12);
  1321  000A2A  0E0C               	movlw	12
  1322  000A2C  EC2E  F00D         	call	_Lcd_Cmd
  1323                           
  1324                           ;Main.c: 87: Lcd_Out2(1,1,"C.-Triangular");
  1325  000A30  0E01               	movlw	1
  1326  000A32  6E04               	movwf	Lcd_Out2@x,c
  1327  000A34  0E08               	movlw	high STR_7
  1328  000A36  6E06               	movwf	Lcd_Out2@buffer+1,c
  1329  000A38  0E3C               	movlw	low STR_7
  1330  000A3A  6E05               	movwf	Lcd_Out2@buffer,c
  1331  000A3C  0E01               	movlw	1
  1332  000A3E  EC8A  F00F         	call	_Lcd_Out2
  1333                           
  1334                           ;Main.c: 88: tm_1s();
  1335  000A42  ECD2  F00F         	call	_tm_1s	;wreg free
  1336                           
  1337                           ;Main.c: 89: key = Recuperar();
  1338  000A46  ECD3  F012         	call	_Recuperar	;wreg free
  1339  000A4A  6E3D               	movwf	main@key,c
  1340                           
  1341                           ;Main.c: 92: if(key=='C'){
  1342  000A4C  503D               	movf	main@key,w,c
  1343  000A4E  0A43               	xorlw	67
  1344  000A50  A4D8               	btfss	status,2,c
  1345  000A52  D0DA               	goto	l3330
  1346                           
  1347                           ;Main.c: 93: w=1;
  1348  000A54  0E00               	movlw	0
  1349  000A56  6E4F               	movwf	_w+1,c
  1350  000A58  0E01               	movlw	1
  1351  000A5A  6E4E               	movwf	_w,c
  1352                           
  1353                           ;Main.c: 94: Lcd_Init();
  1354  000A5C  EC07  F00C         	call	_Lcd_Init	;wreg free
  1355                           
  1356                           ;Main.c: 95: Lcd_Cmd(1);
  1357  000A60  0E01               	movlw	1
  1358  000A62  EC2E  F00D         	call	_Lcd_Cmd
  1359                           
  1360                           ;Main.c: 96: Lcd_Cmd(12);
  1361  000A66  0E0C               	movlw	12
  1362  000A68  EC2E  F00D         	call	_Lcd_Cmd
  1363                           
  1364                           ;Main.c: 97: int_teclado();
  1365  000A6C  ECDA  F012         	call	_int_teclado	;wreg free
  1366                           
  1367                           ;Main.c: 98: key=Recuperar();
  1368  000A70  ECD3  F012         	call	_Recuperar	;wreg free
  1369  000A74  6E3D               	movwf	main@key,c
  1370  000A76                     l3224:
  1371                           
  1372                           ;Main.c: 100: Lcd_Init();
  1373  000A76  EC07  F00C         	call	_Lcd_Init	;wreg free
  1374                           
  1375                           ;Main.c: 101: Lcd_Cmd(1);
  1376  000A7A  0E01               	movlw	1
  1377  000A7C  EC2E  F00D         	call	_Lcd_Cmd
  1378                           
  1379                           ;Main.c: 102: Lcd_Cmd(12);
  1380  000A80  0E0C               	movlw	12
  1381  000A82  EC2E  F00D         	call	_Lcd_Cmd
  1382                           
  1383                           ;Main.c: 103: Lcd_Out2(1,1,"A.-Senal 1");
  1384  000A86  0E01               	movlw	1
  1385  000A88  6E04               	movwf	Lcd_Out2@x,c
  1386  000A8A  0E08               	movlw	high STR_23
  1387  000A8C  6E06               	movwf	Lcd_Out2@buffer+1,c
  1388  000A8E  0E7A               	movlw	low STR_23
  1389  000A90  6E05               	movwf	Lcd_Out2@buffer,c
  1390  000A92  0E01               	movlw	1
  1391  000A94  EC8A  F00F         	call	_Lcd_Out2
  1392                           
  1393                           ;Main.c: 104: Lcd_Out2(2,1,"B.-Seal 2");
  1394  000A98  0E01               	movlw	1
  1395  000A9A  6E04               	movwf	Lcd_Out2@x,c
  1396  000A9C  0E08               	movlw	high STR_24
  1397  000A9E  6E06               	movwf	Lcd_Out2@buffer+1,c
  1398  000AA0  0E85               	movlw	low STR_24
  1399  000AA2  6E05               	movwf	Lcd_Out2@buffer,c
  1400  000AA4  0E02               	movlw	2
  1401  000AA6  EC8A  F00F         	call	_Lcd_Out2
  1402                           
  1403                           ;Main.c: 105: tm_1s();
  1404  000AAA  ECD2  F00F         	call	_tm_1s	;wreg free
  1405                           
  1406                           ;Main.c: 106: Lcd_Cmd(1);
  1407  000AAE  0E01               	movlw	1
  1408  000AB0  EC2E  F00D         	call	_Lcd_Cmd
  1409                           
  1410                           ;Main.c: 107: Lcd_Cmd(12);
  1411  000AB4  0E0C               	movlw	12
  1412  000AB6  EC2E  F00D         	call	_Lcd_Cmd
  1413                           
  1414                           ;Main.c: 108: Lcd_Out2(1,1,"C.-Senal 3");
  1415  000ABA  0E01               	movlw	1
  1416  000ABC  6E04               	movwf	Lcd_Out2@x,c
  1417  000ABE  0E08               	movlw	high STR_25
  1418  000AC0  6E06               	movwf	Lcd_Out2@buffer+1,c
  1419  000AC2  0E9B               	movlw	low STR_25
  1420  000AC4  6E05               	movwf	Lcd_Out2@buffer,c
  1421  000AC6  0E01               	movlw	1
  1422  000AC8  EC8A  F00F         	call	_Lcd_Out2
  1423                           
  1424                           ;Main.c: 109: tm_1s();
  1425  000ACC  ECD2  F00F         	call	_tm_1s	;wreg free
  1426                           
  1427                           ;Main.c: 110: key = Recuperar();
  1428  000AD0  ECD3  F012         	call	_Recuperar	;wreg free
  1429  000AD4  6E3D               	movwf	main@key,c
  1430                           
  1431                           ;Main.c: 112: if(key=='A'){
  1432  000AD6  503D               	movf	main@key,w,c
  1433  000AD8  0A41               	xorlw	65
  1434  000ADA  A4D8               	btfss	status,2,c
  1435  000ADC  D02B               	goto	l3272
  1436                           
  1437                           ;Main.c: 113: q=1;
  1438  000ADE  0E00               	movlw	0
  1439  000AE0  6E47               	movwf	_q+1,c
  1440  000AE2  0E01               	movlw	1
  1441  000AE4  6E46               	movwf	_q,c
  1442                           
  1443                           ;Main.c: 114: Lcd_Init();
  1444  000AE6  EC07  F00C         	call	_Lcd_Init	;wreg free
  1445                           
  1446                           ;Main.c: 115: Lcd_Cmd(1);
  1447  000AEA  0E01               	movlw	1
  1448  000AEC  EC2E  F00D         	call	_Lcd_Cmd
  1449                           
  1450                           ;Main.c: 116: Lcd_Cmd(12);
  1451  000AF0  0E0C               	movlw	12
  1452  000AF2  EC2E  F00D         	call	_Lcd_Cmd
  1453                           
  1454                           ;Main.c: 117: Lcd_Out2(1,1,"A.-Senal 1");
  1455  000AF6  0E01               	movlw	1
  1456  000AF8  6E04               	movwf	Lcd_Out2@x,c
  1457  000AFA  0E08               	movlw	high STR_23
  1458  000AFC  6E06               	movwf	Lcd_Out2@buffer+1,c
  1459  000AFE  0E7A               	movlw	low STR_23
  1460  000B00  6E05               	movwf	Lcd_Out2@buffer,c
  1461  000B02  0E01               	movlw	1
  1462  000B04  EC8A  F00F         	call	_Lcd_Out2
  1463                           
  1464                           ;Main.c: 118: int_teclado();
  1465  000B08  ECDA  F012         	call	_int_teclado	;wreg free
  1466                           
  1467                           ;Main.c: 119: key=Recuperar();
  1468  000B0C  ECD3  F012         	call	_Recuperar	;wreg free
  1469  000B10  6E3D               	movwf	main@key,c
  1470  000B12                     l3262:
  1471                           
  1472                           ;Main.c: 121: TRIANGULAR_GENERAR_1();
  1473  000B12  EC39  F011         	call	_TRIANGULAR_GENERAR_1	;wreg free
  1474                           
  1475                           ;Main.c: 122: key=Recuperar();
  1476  000B16  ECD3  F012         	call	_Recuperar	;wreg free
  1477  000B1A  6E3D               	movwf	main@key,c
  1478                           
  1479                           ;Main.c: 123: if(key=='*'){q=0;}
  1480  000B1C  503D               	movf	main@key,w,c
  1481  000B1E  0A2A               	xorlw	42
  1482  000B20  A4D8               	btfss	status,2,c
  1483  000B22  D004               	goto	l3270
  1484  000B24  0E00               	movlw	0
  1485  000B26  6E47               	movwf	_q+1,c
  1486  000B28  0E00               	movlw	0
  1487  000B2A  6E46               	movwf	_q,c
  1488  000B2C                     l3270:
  1489                           
  1490                           ;Main.c: 124: }while(q==1);
  1491  000B2C  0446               	decf	_q,w,c
  1492  000B2E  1047               	iorwf	_q+1,w,c
  1493  000B30  B4D8               	btfsc	status,2,c
  1494  000B32  D7EF               	goto	l3262
  1495  000B34                     l3272:
  1496                           
  1497                           ;Main.c: 125: }
  1498                           ;Main.c: 128: if(key=='B'){
  1499  000B34  503D               	movf	main@key,w,c
  1500  000B36  0A42               	xorlw	66
  1501  000B38  A4D8               	btfss	status,2,c
  1502  000B3A  D02B               	goto	l3298
  1503                           
  1504                           ;Main.c: 129: q=1;
  1505  000B3C  0E00               	movlw	0
  1506  000B3E  6E47               	movwf	_q+1,c
  1507  000B40  0E01               	movlw	1
  1508  000B42  6E46               	movwf	_q,c
  1509                           
  1510                           ;Main.c: 130: Lcd_Init();
  1511  000B44  EC07  F00C         	call	_Lcd_Init	;wreg free
  1512                           
  1513                           ;Main.c: 131: Lcd_Cmd(1);
  1514  000B48  0E01               	movlw	1
  1515  000B4A  EC2E  F00D         	call	_Lcd_Cmd
  1516                           
  1517                           ;Main.c: 132: Lcd_Cmd(12);
  1518  000B4E  0E0C               	movlw	12
  1519  000B50  EC2E  F00D         	call	_Lcd_Cmd
  1520                           
  1521                           ;Main.c: 133: Lcd_Out2(1,1,"B.-Senal 2");
  1522  000B54  0E01               	movlw	1
  1523  000B56  6E04               	movwf	Lcd_Out2@x,c
  1524  000B58  0E08               	movlw	high STR_27
  1525  000B5A  6E06               	movwf	Lcd_Out2@buffer+1,c
  1526  000B5C  0E90               	movlw	low STR_27
  1527  000B5E  6E05               	movwf	Lcd_Out2@buffer,c
  1528  000B60  0E01               	movlw	1
  1529  000B62  EC8A  F00F         	call	_Lcd_Out2
  1530                           
  1531                           ;Main.c: 134: int_teclado();
  1532  000B66  ECDA  F012         	call	_int_teclado	;wreg free
  1533                           
  1534                           ;Main.c: 135: key=Recuperar();
  1535  000B6A  ECD3  F012         	call	_Recuperar	;wreg free
  1536  000B6E  6E3D               	movwf	main@key,c
  1537  000B70                     l3288:
  1538                           
  1539                           ;Main.c: 137: TRIANGULAR_GENERAR_2();
  1540  000B70  EC05  F011         	call	_TRIANGULAR_GENERAR_2	;wreg free
  1541                           
  1542                           ;Main.c: 138: key=Recuperar();
  1543  000B74  ECD3  F012         	call	_Recuperar	;wreg free
  1544  000B78  6E3D               	movwf	main@key,c
  1545                           
  1546                           ;Main.c: 139: if(key=='*'){q=0;}
  1547  000B7A  503D               	movf	main@key,w,c
  1548  000B7C  0A2A               	xorlw	42
  1549  000B7E  A4D8               	btfss	status,2,c
  1550  000B80  D004               	goto	l3296
  1551  000B82  0E00               	movlw	0
  1552  000B84  6E47               	movwf	_q+1,c
  1553  000B86  0E00               	movlw	0
  1554  000B88  6E46               	movwf	_q,c
  1555  000B8A                     l3296:
  1556                           
  1557                           ;Main.c: 140: }while(q==1);
  1558  000B8A  0446               	decf	_q,w,c
  1559  000B8C  1047               	iorwf	_q+1,w,c
  1560  000B8E  B4D8               	btfsc	status,2,c
  1561  000B90  D7EF               	goto	l3288
  1562  000B92                     l3298:
  1563                           
  1564                           ;Main.c: 141: }
  1565                           ;Main.c: 143: if(key=='C'){
  1566  000B92  503D               	movf	main@key,w,c
  1567  000B94  0A43               	xorlw	67
  1568  000B96  A4D8               	btfss	status,2,c
  1569  000B98  D02B               	goto	l3324
  1570                           
  1571                           ;Main.c: 144: q=1;
  1572  000B9A  0E00               	movlw	0
  1573  000B9C  6E47               	movwf	_q+1,c
  1574  000B9E  0E01               	movlw	1
  1575  000BA0  6E46               	movwf	_q,c
  1576                           
  1577                           ;Main.c: 145: Lcd_Init();
  1578  000BA2  EC07  F00C         	call	_Lcd_Init	;wreg free
  1579                           
  1580                           ;Main.c: 146: Lcd_Cmd(1);
  1581  000BA6  0E01               	movlw	1
  1582  000BA8  EC2E  F00D         	call	_Lcd_Cmd
  1583                           
  1584                           ;Main.c: 147: Lcd_Cmd(12);
  1585  000BAC  0E0C               	movlw	12
  1586  000BAE  EC2E  F00D         	call	_Lcd_Cmd
  1587                           
  1588                           ;Main.c: 148: Lcd_Out2(1,1,"C.-Senal 3");
  1589  000BB2  0E01               	movlw	1
  1590  000BB4  6E04               	movwf	Lcd_Out2@x,c
  1591  000BB6  0E08               	movlw	high STR_25
  1592  000BB8  6E06               	movwf	Lcd_Out2@buffer+1,c
  1593  000BBA  0E9B               	movlw	low STR_25
  1594  000BBC  6E05               	movwf	Lcd_Out2@buffer,c
  1595  000BBE  0E01               	movlw	1
  1596  000BC0  EC8A  F00F         	call	_Lcd_Out2
  1597                           
  1598                           ;Main.c: 149: int_teclado();
  1599  000BC4  ECDA  F012         	call	_int_teclado	;wreg free
  1600                           
  1601                           ;Main.c: 150: key=Recuperar();
  1602  000BC8  ECD3  F012         	call	_Recuperar	;wreg free
  1603  000BCC  6E3D               	movwf	main@key,c
  1604  000BCE                     l3314:
  1605                           
  1606                           ;Main.c: 152: TRIANGULAR_GENERAR_3();
  1607  000BCE  ECD1  F010         	call	_TRIANGULAR_GENERAR_3	;wreg free
  1608                           
  1609                           ;Main.c: 153: key=Recuperar();
  1610  000BD2  ECD3  F012         	call	_Recuperar	;wreg free
  1611  000BD6  6E3D               	movwf	main@key,c
  1612                           
  1613                           ;Main.c: 154: if(key=='*'){q=0;}
  1614  000BD8  503D               	movf	main@key,w,c
  1615  000BDA  0A2A               	xorlw	42
  1616  000BDC  A4D8               	btfss	status,2,c
  1617  000BDE  D004               	goto	l3322
  1618  000BE0  0E00               	movlw	0
  1619  000BE2  6E47               	movwf	_q+1,c
  1620  000BE4  0E00               	movlw	0
  1621  000BE6  6E46               	movwf	_q,c
  1622  000BE8                     l3322:
  1623                           
  1624                           ;Main.c: 155: }while(q==1);
  1625  000BE8  0446               	decf	_q,w,c
  1626  000BEA  1047               	iorwf	_q+1,w,c
  1627  000BEC  B4D8               	btfsc	status,2,c
  1628  000BEE  D7EF               	goto	l3314
  1629  000BF0                     l3324:
  1630                           
  1631                           ;Main.c: 156: }
  1632                           ;Main.c: 158: if(key=='D'){w=0;}
  1633  000BF0  503D               	movf	main@key,w,c
  1634  000BF2  0A44               	xorlw	68
  1635  000BF4  A4D8               	btfss	status,2,c
  1636  000BF6  D004               	goto	l3328
  1637  000BF8  0E00               	movlw	0
  1638  000BFA  6E4F               	movwf	_w+1,c
  1639  000BFC  0E00               	movlw	0
  1640  000BFE  6E4E               	movwf	_w,c
  1641  000C00                     l3328:
  1642                           
  1643                           ;Main.c: 159: }while(w==1);
  1644  000C00  044E               	decf	_w,w,c
  1645  000C02  104F               	iorwf	_w+1,w,c
  1646  000C04  B4D8               	btfsc	status,2,c
  1647  000C06  D737               	goto	l3224
  1648  000C08                     l3330:
  1649                           
  1650                           ;Main.c: 160: }
  1651                           ;Main.c: 165: if(key=='B'){
  1652  000C08  503D               	movf	main@key,w,c
  1653  000C0A  0A42               	xorlw	66
  1654  000C0C  A4D8               	btfss	status,2,c
  1655  000C0E  D0DA               	goto	l3450
  1656                           
  1657                           ;Main.c: 166: w=1;
  1658  000C10  0E00               	movlw	0
  1659  000C12  6E4F               	movwf	_w+1,c
  1660  000C14  0E01               	movlw	1
  1661  000C16  6E4E               	movwf	_w,c
  1662                           
  1663                           ;Main.c: 167: Lcd_Init();
  1664  000C18  EC07  F00C         	call	_Lcd_Init	;wreg free
  1665                           
  1666                           ;Main.c: 168: Lcd_Cmd(1);
  1667  000C1C  0E01               	movlw	1
  1668  000C1E  EC2E  F00D         	call	_Lcd_Cmd
  1669                           
  1670                           ;Main.c: 169: Lcd_Cmd(12);
  1671  000C22  0E0C               	movlw	12
  1672  000C24  EC2E  F00D         	call	_Lcd_Cmd
  1673                           
  1674                           ;Main.c: 170: int_teclado();
  1675  000C28  ECDA  F012         	call	_int_teclado	;wreg free
  1676                           
  1677                           ;Main.c: 171: key=Recuperar();
  1678  000C2C  ECD3  F012         	call	_Recuperar	;wreg free
  1679  000C30  6E3D               	movwf	main@key,c
  1680  000C32                     l3344:
  1681                           
  1682                           ;Main.c: 173: Lcd_Init();
  1683  000C32  EC07  F00C         	call	_Lcd_Init	;wreg free
  1684                           
  1685                           ;Main.c: 174: Lcd_Cmd(1);
  1686  000C36  0E01               	movlw	1
  1687  000C38  EC2E  F00D         	call	_Lcd_Cmd
  1688                           
  1689                           ;Main.c: 175: Lcd_Cmd(12);
  1690  000C3C  0E0C               	movlw	12
  1691  000C3E  EC2E  F00D         	call	_Lcd_Cmd
  1692                           
  1693                           ;Main.c: 176: Lcd_Out2(1,1,"A.-Senal 1");
  1694  000C42  0E01               	movlw	1
  1695  000C44  6E04               	movwf	Lcd_Out2@x,c
  1696  000C46  0E08               	movlw	high STR_23
  1697  000C48  6E06               	movwf	Lcd_Out2@buffer+1,c
  1698  000C4A  0E7A               	movlw	low STR_23
  1699  000C4C  6E05               	movwf	Lcd_Out2@buffer,c
  1700  000C4E  0E01               	movlw	1
  1701  000C50  EC8A  F00F         	call	_Lcd_Out2
  1702                           
  1703                           ;Main.c: 177: Lcd_Out2(2,1,"B.-Seal 2");
  1704  000C54  0E01               	movlw	1
  1705  000C56  6E04               	movwf	Lcd_Out2@x,c
  1706  000C58  0E08               	movlw	high STR_24
  1707  000C5A  6E06               	movwf	Lcd_Out2@buffer+1,c
  1708  000C5C  0E85               	movlw	low STR_24
  1709  000C5E  6E05               	movwf	Lcd_Out2@buffer,c
  1710  000C60  0E02               	movlw	2
  1711  000C62  EC8A  F00F         	call	_Lcd_Out2
  1712                           
  1713                           ;Main.c: 178: tm_1s();
  1714  000C66  ECD2  F00F         	call	_tm_1s	;wreg free
  1715                           
  1716                           ;Main.c: 179: Lcd_Cmd(1);
  1717  000C6A  0E01               	movlw	1
  1718  000C6C  EC2E  F00D         	call	_Lcd_Cmd
  1719                           
  1720                           ;Main.c: 180: Lcd_Cmd(12);
  1721  000C70  0E0C               	movlw	12
  1722  000C72  EC2E  F00D         	call	_Lcd_Cmd
  1723                           
  1724                           ;Main.c: 181: Lcd_Out2(1,1,"C.-Senal 3");
  1725  000C76  0E01               	movlw	1
  1726  000C78  6E04               	movwf	Lcd_Out2@x,c
  1727  000C7A  0E08               	movlw	high STR_25
  1728  000C7C  6E06               	movwf	Lcd_Out2@buffer+1,c
  1729  000C7E  0E9B               	movlw	low STR_25
  1730  000C80  6E05               	movwf	Lcd_Out2@buffer,c
  1731  000C82  0E01               	movlw	1
  1732  000C84  EC8A  F00F         	call	_Lcd_Out2
  1733                           
  1734                           ;Main.c: 182: tm_1s();
  1735  000C88  ECD2  F00F         	call	_tm_1s	;wreg free
  1736                           
  1737                           ;Main.c: 183: key = Recuperar();
  1738  000C8C  ECD3  F012         	call	_Recuperar	;wreg free
  1739  000C90  6E3D               	movwf	main@key,c
  1740                           
  1741                           ;Main.c: 185: if(key=='A'){
  1742  000C92  503D               	movf	main@key,w,c
  1743  000C94  0A41               	xorlw	65
  1744  000C96  A4D8               	btfss	status,2,c
  1745  000C98  D02B               	goto	l3392
  1746                           
  1747                           ;Main.c: 186: q=1;
  1748  000C9A  0E00               	movlw	0
  1749  000C9C  6E47               	movwf	_q+1,c
  1750  000C9E  0E01               	movlw	1
  1751  000CA0  6E46               	movwf	_q,c
  1752                           
  1753                           ;Main.c: 187: Lcd_Init();
  1754  000CA2  EC07  F00C         	call	_Lcd_Init	;wreg free
  1755                           
  1756                           ;Main.c: 188: Lcd_Cmd(1);
  1757  000CA6  0E01               	movlw	1
  1758  000CA8  EC2E  F00D         	call	_Lcd_Cmd
  1759                           
  1760                           ;Main.c: 189: Lcd_Cmd(12);
  1761  000CAC  0E0C               	movlw	12
  1762  000CAE  EC2E  F00D         	call	_Lcd_Cmd
  1763                           
  1764                           ;Main.c: 190: Lcd_Out2(1,1,"A.-Senal 1");
  1765  000CB2  0E01               	movlw	1
  1766  000CB4  6E04               	movwf	Lcd_Out2@x,c
  1767  000CB6  0E08               	movlw	high STR_23
  1768  000CB8  6E06               	movwf	Lcd_Out2@buffer+1,c
  1769  000CBA  0E7A               	movlw	low STR_23
  1770  000CBC  6E05               	movwf	Lcd_Out2@buffer,c
  1771  000CBE  0E01               	movlw	1
  1772  000CC0  EC8A  F00F         	call	_Lcd_Out2
  1773                           
  1774                           ;Main.c: 191: int_teclado();
  1775  000CC4  ECDA  F012         	call	_int_teclado	;wreg free
  1776                           
  1777                           ;Main.c: 192: key=Recuperar();
  1778  000CC8  ECD3  F012         	call	_Recuperar	;wreg free
  1779  000CCC  6E3D               	movwf	main@key,c
  1780  000CCE                     l3382:
  1781                           
  1782                           ;Main.c: 194: SENO_GENERAR_1();
  1783  000CCE  ECA1  F011         	call	_SENO_GENERAR_1	;wreg free
  1784                           
  1785                           ;Main.c: 195: key=Recuperar();
  1786  000CD2  ECD3  F012         	call	_Recuperar	;wreg free
  1787  000CD6  6E3D               	movwf	main@key,c
  1788                           
  1789                           ;Main.c: 196: if(key=='*'){q=0;}
  1790  000CD8  503D               	movf	main@key,w,c
  1791  000CDA  0A2A               	xorlw	42
  1792  000CDC  A4D8               	btfss	status,2,c
  1793  000CDE  D004               	goto	l3390
  1794  000CE0  0E00               	movlw	0
  1795  000CE2  6E47               	movwf	_q+1,c
  1796  000CE4  0E00               	movlw	0
  1797  000CE6  6E46               	movwf	_q,c
  1798  000CE8                     l3390:
  1799                           
  1800                           ;Main.c: 197: }while(q==1);
  1801  000CE8  0446               	decf	_q,w,c
  1802  000CEA  1047               	iorwf	_q+1,w,c
  1803  000CEC  B4D8               	btfsc	status,2,c
  1804  000CEE  D7EF               	goto	l3382
  1805  000CF0                     l3392:
  1806                           
  1807                           ;Main.c: 198: }
  1808                           ;Main.c: 201: if(key=='B'){
  1809  000CF0  503D               	movf	main@key,w,c
  1810  000CF2  0A42               	xorlw	66
  1811  000CF4  A4D8               	btfss	status,2,c
  1812  000CF6  D02B               	goto	l3418
  1813                           
  1814                           ;Main.c: 202: q=1;
  1815  000CF8  0E00               	movlw	0
  1816  000CFA  6E47               	movwf	_q+1,c
  1817  000CFC  0E01               	movlw	1
  1818  000CFE  6E46               	movwf	_q,c
  1819                           
  1820                           ;Main.c: 203: Lcd_Init();
  1821  000D00  EC07  F00C         	call	_Lcd_Init	;wreg free
  1822                           
  1823                           ;Main.c: 204: Lcd_Cmd(1);
  1824  000D04  0E01               	movlw	1
  1825  000D06  EC2E  F00D         	call	_Lcd_Cmd
  1826                           
  1827                           ;Main.c: 205: Lcd_Cmd(12);
  1828  000D0A  0E0C               	movlw	12
  1829  000D0C  EC2E  F00D         	call	_Lcd_Cmd
  1830                           
  1831                           ;Main.c: 206: Lcd_Out2(1,1,"B.-Senal 2");
  1832  000D10  0E01               	movlw	1
  1833  000D12  6E04               	movwf	Lcd_Out2@x,c
  1834  000D14  0E08               	movlw	high STR_27
  1835  000D16  6E06               	movwf	Lcd_Out2@buffer+1,c
  1836  000D18  0E90               	movlw	low STR_27
  1837  000D1A  6E05               	movwf	Lcd_Out2@buffer,c
  1838  000D1C  0E01               	movlw	1
  1839  000D1E  EC8A  F00F         	call	_Lcd_Out2
  1840                           
  1841                           ;Main.c: 207: int_teclado();
  1842  000D22  ECDA  F012         	call	_int_teclado	;wreg free
  1843                           
  1844                           ;Main.c: 208: key=Recuperar();
  1845  000D26  ECD3  F012         	call	_Recuperar	;wreg free
  1846  000D2A  6E3D               	movwf	main@key,c
  1847  000D2C                     l3408:
  1848                           
  1849                           ;Main.c: 210: SENO_GENERAR_2();
  1850  000D2C  EC6D  F011         	call	_SENO_GENERAR_2	;wreg free
  1851                           
  1852                           ;Main.c: 211: key=Recuperar();
  1853  000D30  ECD3  F012         	call	_Recuperar	;wreg free
  1854  000D34  6E3D               	movwf	main@key,c
  1855                           
  1856                           ;Main.c: 212: if(key=='*'){q=0;}
  1857  000D36  503D               	movf	main@key,w,c
  1858  000D38  0A2A               	xorlw	42
  1859  000D3A  A4D8               	btfss	status,2,c
  1860  000D3C  D004               	goto	l3416
  1861  000D3E  0E00               	movlw	0
  1862  000D40  6E47               	movwf	_q+1,c
  1863  000D42  0E00               	movlw	0
  1864  000D44  6E46               	movwf	_q,c
  1865  000D46                     l3416:
  1866                           
  1867                           ;Main.c: 213: }while(q==1);
  1868  000D46  0446               	decf	_q,w,c
  1869  000D48  1047               	iorwf	_q+1,w,c
  1870  000D4A  B4D8               	btfsc	status,2,c
  1871  000D4C  D7EF               	goto	l3408
  1872  000D4E                     l3418:
  1873                           
  1874                           ;Main.c: 214: }
  1875                           ;Main.c: 216: if(key=='C'){
  1876  000D4E  503D               	movf	main@key,w,c
  1877  000D50  0A43               	xorlw	67
  1878  000D52  A4D8               	btfss	status,2,c
  1879  000D54  D02B               	goto	l3444
  1880                           
  1881                           ;Main.c: 217: q=1;
  1882  000D56  0E00               	movlw	0
  1883  000D58  6E47               	movwf	_q+1,c
  1884  000D5A  0E01               	movlw	1
  1885  000D5C  6E46               	movwf	_q,c
  1886                           
  1887                           ;Main.c: 218: Lcd_Init();
  1888  000D5E  EC07  F00C         	call	_Lcd_Init	;wreg free
  1889                           
  1890                           ;Main.c: 219: Lcd_Cmd(1);
  1891  000D62  0E01               	movlw	1
  1892  000D64  EC2E  F00D         	call	_Lcd_Cmd
  1893                           
  1894                           ;Main.c: 220: Lcd_Cmd(12);
  1895  000D68  0E0C               	movlw	12
  1896  000D6A  EC2E  F00D         	call	_Lcd_Cmd
  1897                           
  1898                           ;Main.c: 221: Lcd_Out2(1,1,"C.-Senal 3");
  1899  000D6E  0E01               	movlw	1
  1900  000D70  6E04               	movwf	Lcd_Out2@x,c
  1901  000D72  0E08               	movlw	high STR_25
  1902  000D74  6E06               	movwf	Lcd_Out2@buffer+1,c
  1903  000D76  0E9B               	movlw	low STR_25
  1904  000D78  6E05               	movwf	Lcd_Out2@buffer,c
  1905  000D7A  0E01               	movlw	1
  1906  000D7C  EC8A  F00F         	call	_Lcd_Out2
  1907                           
  1908                           ;Main.c: 222: int_teclado();
  1909  000D80  ECDA  F012         	call	_int_teclado	;wreg free
  1910                           
  1911                           ;Main.c: 223: key=Recuperar();
  1912  000D84  ECD3  F012         	call	_Recuperar	;wreg free
  1913  000D88  6E3D               	movwf	main@key,c
  1914  000D8A                     l3434:
  1915                           
  1916                           ;Main.c: 225: SENO_GENERAR_3();
  1917  000D8A  EC97  F010         	call	_SENO_GENERAR_3	;wreg free
  1918                           
  1919                           ;Main.c: 226: key=Recuperar();
  1920  000D8E  ECD3  F012         	call	_Recuperar	;wreg free
  1921  000D92  6E3D               	movwf	main@key,c
  1922                           
  1923                           ;Main.c: 227: if(key=='*'){q=0;}
  1924  000D94  503D               	movf	main@key,w,c
  1925  000D96  0A2A               	xorlw	42
  1926  000D98  A4D8               	btfss	status,2,c
  1927  000D9A  D004               	goto	l3442
  1928  000D9C  0E00               	movlw	0
  1929  000D9E  6E47               	movwf	_q+1,c
  1930  000DA0  0E00               	movlw	0
  1931  000DA2  6E46               	movwf	_q,c
  1932  000DA4                     l3442:
  1933                           
  1934                           ;Main.c: 228: }while(q==1);
  1935  000DA4  0446               	decf	_q,w,c
  1936  000DA6  1047               	iorwf	_q+1,w,c
  1937  000DA8  B4D8               	btfsc	status,2,c
  1938  000DAA  D7EF               	goto	l3434
  1939  000DAC                     l3444:
  1940                           
  1941                           ;Main.c: 229: }
  1942                           ;Main.c: 231: if(key=='D'){w=0;}
  1943  000DAC  503D               	movf	main@key,w,c
  1944  000DAE  0A44               	xorlw	68
  1945  000DB0  A4D8               	btfss	status,2,c
  1946  000DB2  D004               	goto	l3448
  1947  000DB4  0E00               	movlw	0
  1948  000DB6  6E4F               	movwf	_w+1,c
  1949  000DB8  0E00               	movlw	0
  1950  000DBA  6E4E               	movwf	_w,c
  1951  000DBC                     l3448:
  1952                           
  1953                           ;Main.c: 232: }while(w==1);
  1954  000DBC  044E               	decf	_w,w,c
  1955  000DBE  104F               	iorwf	_w+1,w,c
  1956  000DC0  B4D8               	btfsc	status,2,c
  1957  000DC2  D737               	goto	l3344
  1958  000DC4                     l3450:
  1959                           
  1960                           ;Main.c: 233: }
  1961                           ;Main.c: 236: if(key=='A'){
  1962  000DC4  503D               	movf	main@key,w,c
  1963  000DC6  0A41               	xorlw	65
  1964  000DC8  A4D8               	btfss	status,2,c
  1965  000DCA  D14B               	goto	l3570
  1966                           
  1967                           ;Main.c: 237: w=1;
  1968  000DCC  0E00               	movlw	0
  1969  000DCE  6E4F               	movwf	_w+1,c
  1970  000DD0  0E01               	movlw	1
  1971  000DD2  6E4E               	movwf	_w,c
  1972  000DD4                     l3454:
  1973                           
  1974                           ;Main.c: 240: Lcd_Init();
  1975  000DD4  EC07  F00C         	call	_Lcd_Init	;wreg free
  1976                           
  1977                           ;Main.c: 241: Lcd_Cmd(1);
  1978  000DD8  0E01               	movlw	1
  1979  000DDA  EC2E  F00D         	call	_Lcd_Cmd
  1980                           
  1981                           ;Main.c: 242: Lcd_Cmd(12);
  1982  000DDE  0E0C               	movlw	12
  1983  000DE0  EC2E  F00D         	call	_Lcd_Cmd
  1984                           
  1985                           ;Main.c: 243: Lcd_Out2(1,1,"1.-Datos");
  1986  000DE4  0E01               	movlw	1
  1987  000DE6  6E04               	movwf	Lcd_Out2@x,c
  1988  000DE8  0E08               	movlw	high STR_8
  1989  000DEA  6E06               	movwf	Lcd_Out2@buffer+1,c
  1990  000DEC  0EC4               	movlw	low STR_8
  1991  000DEE  6E05               	movwf	Lcd_Out2@buffer,c
  1992  000DF0  0E01               	movlw	1
  1993  000DF2  EC8A  F00F         	call	_Lcd_Out2
  1994                           
  1995                           ;Main.c: 244: Lcd_Out2(2,1,"2.-Comenzar");
  1996  000DF6  0E01               	movlw	1
  1997  000DF8  6E04               	movwf	Lcd_Out2@x,c
  1998  000DFA  0E08               	movlw	high STR_9
  1999  000DFC  6E06               	movwf	Lcd_Out2@buffer+1,c
  2000  000DFE  0E6E               	movlw	low STR_9
  2001  000E00  6E05               	movwf	Lcd_Out2@buffer,c
  2002  000E02  0E02               	movlw	2
  2003  000E04  EC8A  F00F         	call	_Lcd_Out2
  2004                           
  2005                           ;Main.c: 245: tm_1s();
  2006  000E08  ECD2  F00F         	call	_tm_1s	;wreg free
  2007                           
  2008                           ;Main.c: 246: key=Recuperar();
  2009  000E0C  ECD3  F012         	call	_Recuperar	;wreg free
  2010  000E10  6E3D               	movwf	main@key,c
  2011                           
  2012                           ;Main.c: 247: if(key=='1') {
  2013  000E12  503D               	movf	main@key,w,c
  2014  000E14  0A31               	xorlw	49
  2015  000E16  A4D8               	btfss	status,2,c
  2016  000E18  D097               	goto	l3530
  2017                           
  2018                           ;Main.c: 248: r=1;
  2019  000E1A  0E00               	movlw	0
  2020  000E1C  6E49               	movwf	_r+1,c
  2021  000E1E  0E01               	movlw	1
  2022  000E20  6E48               	movwf	_r,c
  2023  000E22                     l3472:
  2024                           
  2025                           ;Main.c: 250: Lcd_Cmd(1);
  2026  000E22  0E01               	movlw	1
  2027  000E24  EC2E  F00D         	call	_Lcd_Cmd
  2028                           
  2029                           ;Main.c: 251: Lcd_Cmd(12);
  2030  000E28  0E0C               	movlw	12
  2031  000E2A  EC2E  F00D         	call	_Lcd_Cmd
  2032                           
  2033                           ;Main.c: 252: Lcd_Out2(1,1,"A.-Frecuencia");
  2034  000E2E  0E01               	movlw	1
  2035  000E30  6E04               	movwf	Lcd_Out2@x,c
  2036  000E32  0E08               	movlw	high STR_37
  2037  000E34  6E06               	movwf	Lcd_Out2@buffer+1,c
  2038  000E36  0E20               	movlw	low STR_37
  2039  000E38  6E05               	movwf	Lcd_Out2@buffer,c
  2040  000E3A  0E01               	movlw	1
  2041  000E3C  EC8A  F00F         	call	_Lcd_Out2
  2042                           
  2043                           ;Main.c: 253: Lcd_Out2(2,1,"B.-Ciclo");
  2044  000E40  0E01               	movlw	1
  2045  000E42  6E04               	movwf	Lcd_Out2@x,c
  2046  000E44  0E08               	movlw	high STR_38
  2047  000E46  6E06               	movwf	Lcd_Out2@buffer+1,c
  2048  000E48  0EBB               	movlw	low STR_38
  2049  000E4A  6E05               	movwf	Lcd_Out2@buffer,c
  2050  000E4C  0E02               	movlw	2
  2051  000E4E  EC8A  F00F         	call	_Lcd_Out2
  2052                           
  2053                           ;Main.c: 254: tm_1s();
  2054  000E52  ECD2  F00F         	call	_tm_1s	;wreg free
  2055                           
  2056                           ;Main.c: 255: key=Recuperar();
  2057  000E56  ECD3  F012         	call	_Recuperar	;wreg free
  2058  000E5A  6E3D               	movwf	main@key,c
  2059                           
  2060                           ;Main.c: 257: if(key=='A'){
  2061  000E5C  503D               	movf	main@key,w,c
  2062  000E5E  0A41               	xorlw	65
  2063  000E60  A4D8               	btfss	status,2,c
  2064  000E62  D033               	goto	l3506
  2065                           
  2066                           ;Main.c: 259: int zx=1;
  2067  000E64  0E00               	movlw	0
  2068  000E66  6E3A               	movwf	main@zx+1,c
  2069  000E68  0E01               	movlw	1
  2070  000E6A  6E39               	movwf	main@zx,c
  2071                           
  2072                           ;Main.c: 260: Frecuencia(frecuencia);
  2073  000E6C  0100               	movlb	0	; () banked
  2074  000E6E  0E00               	movlw	high _frecuencia
  2075  000E70  6E16               	movwf	Frecuencia@frecuencia+1,c
  2076  000E72  0100               	movlb	0	; () banked
  2077  000E74  0EDA               	movlw	low _frecuencia
  2078  000E76  6E15               	movwf	Frecuencia@frecuencia,c
  2079  000E78  EC76  F012         	call	_Frecuencia	;wreg free
  2080                           
  2081                           ;Main.c: 261: Imprimir_pantalla(frecuencia);
  2082  000E7C  0100               	movlb	0	; () banked
  2083  000E7E  0E00               	movlw	high _frecuencia
  2084  000E80  6E0A               	movwf	Imprimir_pantalla@N+1,c
  2085  000E82  0100               	movlb	0	; () banked
  2086  000E84  0EDA               	movlw	low _frecuencia
  2087  000E86  6E09               	movwf	Imprimir_pantalla@N,c
  2088  000E88  EC58  F012         	call	_Imprimir_pantalla	;wreg free
  2089                           
  2090                           ;Main.c: 262: s=atoi(frecuencia);
  2091  000E8C  0100               	movlb	0	; () banked
  2092  000E8E  0E00               	movlw	high _frecuencia
  2093  000E90  6E08               	movwf	atoi@s+1,c
  2094  000E92  0100               	movlb	0	; () banked
  2095  000E94  0EDA               	movlw	low _frecuencia
  2096  000E96  6E07               	movwf	atoi@s,c
  2097  000E98  EC25  F00F         	call	_atoi	;wreg free
  2098  000E9C  C007  F04A         	movff	?_atoi,_s
  2099  000EA0  C008  F04B         	movff	?_atoi+1,_s+1
  2100  000EA4                     l3494:
  2101                           
  2102                           ;Main.c: 265: int_teclado();
  2103  000EA4  ECDA  F012         	call	_int_teclado	;wreg free
  2104                           
  2105                           ;Main.c: 266: key=Recuperar();
  2106  000EA8  ECD3  F012         	call	_Recuperar	;wreg free
  2107  000EAC  6E3D               	movwf	main@key,c
  2108                           
  2109                           ;Main.c: 267: tm_1s();
  2110  000EAE  ECD2  F00F         	call	_tm_1s	;wreg free
  2111                           
  2112                           ;Main.c: 268: if(key=='#'){
  2113  000EB2  503D               	movf	main@key,w,c
  2114  000EB4  0A23               	xorlw	35
  2115  000EB6  A4D8               	btfss	status,2,c
  2116  000EB8  D004               	goto	l3504
  2117                           
  2118                           ;Main.c: 269: zx=0;
  2119  000EBA  0E00               	movlw	0
  2120  000EBC  6E3A               	movwf	main@zx+1,c
  2121  000EBE  0E00               	movlw	0
  2122  000EC0  6E39               	movwf	main@zx,c
  2123  000EC2                     l3504:
  2124                           
  2125                           ;Main.c: 270: }
  2126                           ;Main.c: 271: }while(zx==1);
  2127  000EC2  0439               	decf	main@zx,w,c
  2128  000EC4  103A               	iorwf	main@zx+1,w,c
  2129  000EC6  B4D8               	btfsc	status,2,c
  2130  000EC8  D7ED               	goto	l3494
  2131  000ECA                     l3506:
  2132                           
  2133                           ;Main.c: 272: }
  2134                           ;Main.c: 273: if(key=='B'){
  2135  000ECA  503D               	movf	main@key,w,c
  2136  000ECC  0A42               	xorlw	66
  2137  000ECE  A4D8               	btfss	status,2,c
  2138  000ED0  D02F               	goto	l3524
  2139                           
  2140                           ;Main.c: 274: int zx=1;
  2141  000ED2  0E00               	movlw	0
  2142  000ED4  6E3C               	movwf	main@zx_307+1,c
  2143  000ED6  0E01               	movlw	1
  2144  000ED8  6E3B               	movwf	main@zx_307,c
  2145                           
  2146                           ;Main.c: 275: Ciclo(ciclo);
  2147  000EDA  0100               	movlb	0	; () banked
  2148  000EDC  0E00               	movlw	high _ciclo
  2149  000EDE  6E16               	movwf	Ciclo@ciclo+1,c
  2150  000EE0  0100               	movlb	0	; () banked
  2151  000EE2  0ED0               	movlw	low _ciclo
  2152  000EE4  6E15               	movwf	Ciclo@ciclo,c
  2153  000EE6  EC8E  F012         	call	_Ciclo	;wreg free
  2154                           
  2155                           ;Main.c: 276: Imprimir_pantalla(ciclo);
  2156  000EEA  0100               	movlb	0	; () banked
  2157  000EEC  0E00               	movlw	high _ciclo
  2158  000EEE  6E0A               	movwf	Imprimir_pantalla@N+1,c
  2159  000EF0  0100               	movlb	0	; () banked
  2160  000EF2  0ED0               	movlw	low _ciclo
  2161  000EF4  6E09               	movwf	Imprimir_pantalla@N,c
  2162  000EF6  EC58  F012         	call	_Imprimir_pantalla	;wreg free
  2163                           
  2164                           ;Main.c: 277: t=atoi(ciclo);
  2165  000EFA  0100               	movlb	0	; () banked
  2166  000EFC  0E00               	movlw	high _ciclo
  2167  000EFE  6E08               	movwf	atoi@s+1,c
  2168  000F00  0100               	movlb	0	; () banked
  2169  000F02  0ED0               	movlw	low _ciclo
  2170  000F04  6E07               	movwf	atoi@s,c
  2171  000F06  EC25  F00F         	call	_atoi	;wreg free
  2172  000F0A  C007  F04C         	movff	?_atoi,_t
  2173  000F0E  C008  F04D         	movff	?_atoi+1,_t+1
  2174  000F12                     l3516:
  2175                           
  2176                           ;Main.c: 280: key=Recuperar();
  2177  000F12  ECD3  F012         	call	_Recuperar	;wreg free
  2178  000F16  6E3D               	movwf	main@key,c
  2179                           
  2180                           ;Main.c: 281: if(key=='#'){
  2181  000F18  503D               	movf	main@key,w,c
  2182  000F1A  0A23               	xorlw	35
  2183  000F1C  A4D8               	btfss	status,2,c
  2184  000F1E  D004               	goto	l3522
  2185                           
  2186                           ;Main.c: 282: zx=0;
  2187  000F20  0E00               	movlw	0
  2188  000F22  6E3C               	movwf	main@zx_307+1,c
  2189  000F24  0E00               	movlw	0
  2190  000F26  6E3B               	movwf	main@zx_307,c
  2191  000F28                     l3522:
  2192                           
  2193                           ;Main.c: 283: }
  2194                           ;Main.c: 284: }while(zx==1);
  2195  000F28  043B               	decf	main@zx_307,w,c
  2196  000F2A  103C               	iorwf	main@zx_307+1,w,c
  2197  000F2C  B4D8               	btfsc	status,2,c
  2198  000F2E  D7F1               	goto	l3516
  2199  000F30                     l3524:
  2200                           
  2201                           ;Main.c: 285: }
  2202                           ;Main.c: 286: if(key=='*'){
  2203  000F30  503D               	movf	main@key,w,c
  2204  000F32  0A2A               	xorlw	42
  2205  000F34  A4D8               	btfss	status,2,c
  2206  000F36  D004               	goto	l3528
  2207                           
  2208                           ;Main.c: 287: r=0;
  2209  000F38  0E00               	movlw	0
  2210  000F3A  6E49               	movwf	_r+1,c
  2211  000F3C  0E00               	movlw	0
  2212  000F3E  6E48               	movwf	_r,c
  2213  000F40                     l3528:
  2214                           
  2215                           ;Main.c: 288: }
  2216                           ;Main.c: 289: }while(r==1);
  2217  000F40  0448               	decf	_r,w,c
  2218  000F42  1049               	iorwf	_r+1,w,c
  2219  000F44  B4D8               	btfsc	status,2,c
  2220  000F46  D76D               	goto	l3472
  2221  000F48                     l3530:
  2222                           
  2223                           ;Main.c: 290: }
  2224                           ;Main.c: 293: if(key=='2') {
  2225  000F48  503D               	movf	main@key,w,c
  2226  000F4A  0A32               	xorlw	50
  2227  000F4C  A4D8               	btfss	status,2,c
  2228  000F4E  D07A               	goto	l3562
  2229                           
  2230                           ;Main.c: 294: Lcd_Init();
  2231  000F50  EC07  F00C         	call	_Lcd_Init	;wreg free
  2232                           
  2233                           ;Main.c: 295: Lcd_Cmd(1);
  2234  000F54  0E01               	movlw	1
  2235  000F56  EC2E  F00D         	call	_Lcd_Cmd
  2236                           
  2237                           ;Main.c: 296: Lcd_Cmd(12);
  2238  000F5A  0E0C               	movlw	12
  2239  000F5C  EC2E  F00D         	call	_Lcd_Cmd
  2240                           
  2241                           ;Main.c: 297: Lcd_Out2(1,1,"Fre: ");
  2242  000F60  0E01               	movlw	1
  2243  000F62  6E04               	movwf	Lcd_Out2@x,c
  2244  000F64  0E08               	movlw	high STR_12
  2245  000F66  6E06               	movwf	Lcd_Out2@buffer+1,c
  2246  000F68  0ED5               	movlw	low STR_12
  2247  000F6A  6E05               	movwf	Lcd_Out2@buffer,c
  2248  000F6C  0E01               	movlw	1
  2249  000F6E  EC8A  F00F         	call	_Lcd_Out2
  2250                           
  2251                           ;Main.c: 298: Lcd_Out2(1,13,"Hz");
  2252  000F72  0E0D               	movlw	13
  2253  000F74  6E04               	movwf	Lcd_Out2@x,c
  2254  000F76  0E08               	movlw	high STR_13
  2255  000F78  6E06               	movwf	Lcd_Out2@buffer+1,c
  2256  000F7A  0EE1               	movlw	low STR_13
  2257  000F7C  6E05               	movwf	Lcd_Out2@buffer,c
  2258  000F7E  0E01               	movlw	1
  2259  000F80  EC8A  F00F         	call	_Lcd_Out2
  2260                           
  2261                           ;Main.c: 300: cantidad= Conv_Entero(s,cadena);
  2262  000F84  C04A  F00F         	movff	_s,Conv_Entero@numero
  2263  000F88  C04B  F010         	movff	_s+1,Conv_Entero@numero+1
  2264  000F8C  6A11               	clrf	Conv_Entero@numero+2,c
  2265  000F8E  6A12               	clrf	Conv_Entero@numero+3,c
  2266  000F90  0E00               	movlw	high _cadena
  2267  000F92  6E14               	movwf	Conv_Entero@conv+1,c
  2268  000F94  0E54               	movlw	low _cadena
  2269  000F96  6E13               	movwf	Conv_Entero@conv,c
  2270  000F98  EC85  F00A         	call	_Conv_Entero	;wreg free
  2271  000F9C  500F               	movf	?_Conv_Entero,w,c
  2272  000F9E  6E50               	movwf	_cantidad,c
  2273                           
  2274                           ;Main.c: 302: Lcd_Out(1,8,cadena);
  2275  000FA0  0E08               	movlw	8
  2276  000FA2  6E04               	movwf	Lcd_Out@x,c
  2277  000FA4  0E00               	movlw	high _cadena
  2278  000FA6  6E06               	movwf	Lcd_Out@buffer+1,c
  2279  000FA8  0E54               	movlw	low _cadena
  2280  000FAA  6E05               	movwf	Lcd_Out@buffer,c
  2281  000FAC  0E01               	movlw	1
  2282  000FAE  ECD5  F011         	call	_Lcd_Out
  2283                           
  2284                           ;Main.c: 303: Lcd_Out2(2,1,"Ciclo: ");
  2285  000FB2  0E01               	movlw	1
  2286  000FB4  6E04               	movwf	Lcd_Out2@x,c
  2287  000FB6  0E08               	movlw	high STR_14
  2288  000FB8  6E06               	movwf	Lcd_Out2@buffer+1,c
  2289  000FBA  0ECD               	movlw	low STR_14
  2290  000FBC  6E05               	movwf	Lcd_Out2@buffer,c
  2291  000FBE  0E02               	movlw	2
  2292  000FC0  EC8A  F00F         	call	_Lcd_Out2
  2293                           
  2294                           ;Main.c: 304: Lcd_Out2(2,12,"%");
  2295  000FC4  0E0C               	movlw	12
  2296  000FC6  6E04               	movwf	Lcd_Out2@x,c
  2297  000FC8  0E08               	movlw	high STR_15
  2298  000FCA  6E06               	movwf	Lcd_Out2@buffer+1,c
  2299  000FCC  0EE4               	movlw	low STR_15
  2300  000FCE  6E05               	movwf	Lcd_Out2@buffer,c
  2301  000FD0  0E02               	movlw	2
  2302  000FD2  EC8A  F00F         	call	_Lcd_Out2
  2303                           
  2304                           ;Main.c: 306: cantidad= Conv_Entero(t,cadena);
  2305  000FD6  C04C  F00F         	movff	_t,Conv_Entero@numero
  2306  000FDA  C04D  F010         	movff	_t+1,Conv_Entero@numero+1
  2307  000FDE  6A11               	clrf	Conv_Entero@numero+2,c
  2308  000FE0  6A12               	clrf	Conv_Entero@numero+3,c
  2309  000FE2  0E00               	movlw	high _cadena
  2310  000FE4  6E14               	movwf	Conv_Entero@conv+1,c
  2311  000FE6  0E54               	movlw	low _cadena
  2312  000FE8  6E13               	movwf	Conv_Entero@conv,c
  2313  000FEA  EC85  F00A         	call	_Conv_Entero	;wreg free
  2314  000FEE  500F               	movf	?_Conv_Entero,w,c
  2315  000FF0  6E50               	movwf	_cantidad,c
  2316                           
  2317                           ;Main.c: 308: Lcd_Out(2,8,cadena);
  2318  000FF2  0E08               	movlw	8
  2319  000FF4  6E04               	movwf	Lcd_Out@x,c
  2320  000FF6  0E00               	movlw	high _cadena
  2321  000FF8  6E06               	movwf	Lcd_Out@buffer+1,c
  2322  000FFA  0E54               	movlw	low _cadena
  2323  000FFC  6E05               	movwf	Lcd_Out@buffer,c
  2324  000FFE  0E02               	movlw	2
  2325  001000  ECD5  F011         	call	_Lcd_Out
  2326                           
  2327                           ;Main.c: 309: PWM_generar(t,s);
  2328  001004  C04C  F00E         	movff	_t,PWM_generar@duty
  2329  001008  C04D  F00F         	movff	_t+1,PWM_generar@duty+1
  2330  00100C  C04A  F010         	movff	_s,PWM_generar@fpwm
  2331  001010  C04B  F011         	movff	_s+1,PWM_generar@fpwm+1
  2332  001014  EC79  F008         	call	_PWM_generar	;wreg free
  2333                           
  2334                           ;Main.c: 311: key=Recuperar();
  2335  001018  ECD3  F012         	call	_Recuperar	;wreg free
  2336  00101C  6E3D               	movwf	main@key,c
  2337                           
  2338                           ;Main.c: 312: r=1;
  2339  00101E  0E00               	movlw	0
  2340  001020  6E49               	movwf	_r+1,c
  2341  001022  0E01               	movlw	1
  2342  001024  6E48               	movwf	_r,c
  2343  001026                     l3554:
  2344                           
  2345                           ;Main.c: 315: key=Recuperar();
  2346  001026  ECD3  F012         	call	_Recuperar	;wreg free
  2347  00102A  6E3D               	movwf	main@key,c
  2348                           
  2349                           ;Main.c: 318: if(key=='*'){
  2350  00102C  503D               	movf	main@key,w,c
  2351  00102E  0A2A               	xorlw	42
  2352  001030  A4D8               	btfss	status,2,c
  2353  001032  D004               	goto	l3560
  2354                           
  2355                           ;Main.c: 320: r=0;
  2356  001034  0E00               	movlw	0
  2357  001036  6E49               	movwf	_r+1,c
  2358  001038  0E00               	movlw	0
  2359  00103A  6E48               	movwf	_r,c
  2360  00103C                     l3560:
  2361                           
  2362                           ;Main.c: 321: }
  2363                           ;Main.c: 323: }while(r==1);
  2364  00103C  0448               	decf	_r,w,c
  2365  00103E  1049               	iorwf	_r+1,w,c
  2366  001040  B4D8               	btfsc	status,2,c
  2367  001042  D7F1               	goto	l3554
  2368  001044                     l3562:
  2369                           
  2370                           ;Main.c: 324: }
  2371                           ;Main.c: 327: if(key=='D')
  2372  001044  503D               	movf	main@key,w,c
  2373  001046  0A44               	xorlw	68
  2374  001048  A4D8               	btfss	status,2,c
  2375  00104A  D007               	goto	l3568
  2376                           
  2377                           ;Main.c: 328: {
  2378                           ;Main.c: 330: Lcd_Cmd(1);
  2379  00104C  0E01               	movlw	1
  2380  00104E  EC2E  F00D         	call	_Lcd_Cmd
  2381                           
  2382                           ;Main.c: 331: w=0;
  2383  001052  0E00               	movlw	0
  2384  001054  6E4F               	movwf	_w+1,c
  2385  001056  0E00               	movlw	0
  2386  001058  6E4E               	movwf	_w,c
  2387  00105A                     l3568:
  2388                           
  2389                           ;Main.c: 332: }
  2390                           ;Main.c: 333: }while(w==1);
  2391  00105A  044E               	decf	_w,w,c
  2392  00105C  104F               	iorwf	_w+1,w,c
  2393  00105E  B4D8               	btfsc	status,2,c
  2394  001060  D6B9               	goto	l3454
  2395  001062                     l3570:
  2396                           
  2397                           ;Main.c: 335: };
  2398                           ;Main.c: 337: if(key=='#'){
  2399  001062  503D               	movf	main@key,w,c
  2400  001064  0A23               	xorlw	35
  2401  001066  A4D8               	btfss	status,2,c
  2402  001068  D007               	goto	l3576
  2403                           
  2404                           ;Main.c: 338: Lcd_Cmd(1);
  2405  00106A  0E01               	movlw	1
  2406  00106C  EC2E  F00D         	call	_Lcd_Cmd
  2407                           
  2408                           ;Main.c: 339: q=0;
  2409  001070  0E00               	movlw	0
  2410  001072  6E47               	movwf	_q+1,c
  2411  001074  0E00               	movlw	0
  2412  001076  6E46               	movwf	_q,c
  2413  001078                     l3576:
  2414                           
  2415                           ;Main.c: 340: }
  2416                           ;Main.c: 341: }while(q==1);
  2417  001078  0446               	decf	_q,w,c
  2418  00107A  1047               	iorwf	_q+1,w,c
  2419  00107C  B4D8               	btfsc	status,2,c
  2420  00107E  D4B1               	goto	l3184
  2421  001080                     l3578:
  2422                           
  2423                           ;Main.c: 342: }
  2424                           ;Main.c: 344: if(key=='0'){
  2425  001080  503D               	movf	main@key,w,c
  2426  001082  0A30               	xorlw	48
  2427  001084  A4D8               	btfss	status,2,c
  2428  001086  D440               	goto	l3134
  2429                           
  2430                           ;Main.c: 345: q=1;
  2431  001088  0E00               	movlw	0
  2432  00108A  6E47               	movwf	_q+1,c
  2433  00108C  0E01               	movlw	1
  2434  00108E  6E46               	movwf	_q,c
  2435                           
  2436                           ;Main.c: 346: Lcd_Init();
  2437  001090  EC07  F00C         	call	_Lcd_Init	;wreg free
  2438                           
  2439                           ;Main.c: 347: Lcd_Cmd(1);
  2440  001094  0E01               	movlw	1
  2441  001096  EC2E  F00D         	call	_Lcd_Cmd
  2442                           
  2443                           ;Main.c: 348: Lcd_Cmd(12);
  2444  00109A  0E0C               	movlw	12
  2445  00109C  EC2E  F00D         	call	_Lcd_Cmd
  2446                           
  2447                           ;Main.c: 349: Lcd_Out2(1,1,"Adios");
  2448  0010A0  0E01               	movlw	1
  2449  0010A2  6E04               	movwf	Lcd_Out2@x,c
  2450  0010A4  0E08               	movlw	high STR_43
  2451  0010A6  6E06               	movwf	Lcd_Out2@buffer+1,c
  2452  0010A8  0EDB               	movlw	low STR_43
  2453  0010AA  6E05               	movwf	Lcd_Out2@buffer,c
  2454  0010AC  0E01               	movlw	1
  2455  0010AE  EC8A  F00F         	call	_Lcd_Out2
  2456                           
  2457                           ;Main.c: 350: tm_1s();
  2458  0010B2  ECD2  F00F         	call	_tm_1s	;wreg free
  2459                           
  2460                           ;Main.c: 351: key = Recuperar();
  2461  0010B6  ECD3  F012         	call	_Recuperar	;wreg free
  2462  0010BA  6E3D               	movwf	main@key,c
  2463  0010BC                     l3594:
  2464                           
  2465                           ;Main.c: 353: Lcd_Init();
  2466  0010BC  EC07  F00C         	call	_Lcd_Init	;wreg free
  2467                           
  2468                           ;Main.c: 354: Lcd_Cmd(1);
  2469  0010C0  0E01               	movlw	1
  2470  0010C2  EC2E  F00D         	call	_Lcd_Cmd
  2471                           
  2472                           ;Main.c: 355: Lcd_Cmd(12);
  2473  0010C6  0E0C               	movlw	12
  2474  0010C8  EC2E  F00D         	call	_Lcd_Cmd
  2475                           
  2476                           ;Main.c: 356: Lcd_Cmd(0);
  2477  0010CC  0E00               	movlw	0
  2478  0010CE  EC2E  F00D         	call	_Lcd_Cmd
  2479                           
  2480                           ;Main.c: 357: key = Recuperar();
  2481  0010D2  ECD3  F012         	call	_Recuperar	;wreg free
  2482  0010D6  6E3D               	movwf	main@key,c
  2483                           
  2484                           ;Main.c: 359: if(key=='*'){
  2485  0010D8  503D               	movf	main@key,w,c
  2486  0010DA  0A2A               	xorlw	42
  2487  0010DC  A4D8               	btfss	status,2,c
  2488  0010DE  D004               	goto	l3608
  2489                           
  2490                           ;Main.c: 360: q=0;
  2491  0010E0  0E00               	movlw	0
  2492  0010E2  6E47               	movwf	_q+1,c
  2493  0010E4  0E00               	movlw	0
  2494  0010E6  6E46               	movwf	_q,c
  2495  0010E8                     l3608:
  2496                           
  2497                           ;Main.c: 361: }
  2498                           ;Main.c: 362: }while(q==1);
  2499  0010E8  0446               	decf	_q,w,c
  2500  0010EA  1047               	iorwf	_q+1,w,c
  2501  0010EC  A4D8               	btfss	status,2,c
  2502  0010EE  D40C               	goto	l3134
  2503  0010F0  D7E5               	goto	l3594
  2504  0010F2                     __end_of_main:
  2505                           	opt stack 0
  2506                           tblptru	equ	0xFF8
  2507                           tblptrh	equ	0xFF7
  2508                           tblptrl	equ	0xFF6
  2509                           tablat	equ	0xFF5
  2510                           postinc0	equ	0xFEE
  2511                           wreg	equ	0xFE8
  2512                           postdec1	equ	0xFE5
  2513                           fsr1l	equ	0xFE1
  2514                           status	equ	0xFD8
  2515                           
  2516 ;; *************** function _int_teclado *****************
  2517 ;; Defined at:
  2518 ;;		line 70 in file "teclado.c"
  2519 ;; Parameters:    Size  Location     Type
  2520 ;;		None
  2521 ;; Auto vars:     Size  Location     Type
  2522 ;;		None
  2523 ;; Return value:  Size  Location     Type
  2524 ;;		None               void
  2525 ;; Registers used:
  2526 ;;		wreg, status,2
  2527 ;; Tracked objects:
  2528 ;;		On entry : 0/0
  2529 ;;		On exit  : 0/0
  2530 ;;		Unchanged: 0/0
  2531 ;; Data sizes:     COMRAM   BANK0   BANK1   BANK2   BANK3   BANK4   BANK5   BANK6   BANK7
  2532 ;;      Params:         0       0       0       0       0       0       0       0       0
  2533 ;;      Locals:         0       0       0       0       0       0       0       0       0
  2534 ;;      Temps:          0       0       0       0       0       0       0       0       0
  2535 ;;      Totals:         0       0       0       0       0       0       0       0       0
  2536 ;;Total ram usage:        0 bytes
  2537 ;; Hardware stack levels used:    1
  2538 ;; This function calls:
  2539 ;;		Nothing
  2540 ;; This function is called by:
  2541 ;;		_main
  2542 ;; This function uses a non-reentrant model
  2543 ;;
  2544                           
  2545                           	psect	text1
  2546  0025B4                     __ptext1:
  2547                           	opt stack 0
  2548  0025B4                     _int_teclado:
  2549                           	opt stack 30
  2550                           
  2551                           ;teclado.c: 71: PORTA = 0x00;
  2552                           
  2553                           ;incstack = 0
  2554  0025B4  0E00               	movlw	0
  2555  0025B6  6E80               	movwf	3968,c	;volatile
  2556                           
  2557                           ;teclado.c: 72: TRISA = 0xF0;
  2558  0025B8  0EF0               	movlw	240
  2559  0025BA  6E92               	movwf	3986,c	;volatile
  2560  0025BC  0012               	return	
  2561  0025BE                     __end_of_int_teclado:
  2562                           	opt stack 0
  2563                           tblptru	equ	0xFF8
  2564                           tblptrh	equ	0xFF7
  2565                           tblptrl	equ	0xFF6
  2566                           tablat	equ	0xFF5
  2567                           postinc0	equ	0xFEE
  2568                           wreg	equ	0xFE8
  2569                           postdec1	equ	0xFE5
  2570                           fsr1l	equ	0xFE1
  2571                           status	equ	0xFD8
  2572                           
  2573 ;; *************** function _atoi *****************
  2574 ;; Defined at:
  2575 ;;		line 5 in file "/opt/microchip/xc8/v1.32/sources/common/atoi.c"
  2576 ;; Parameters:    Size  Location     Type
  2577 ;;  s               2    6[COMRAM] PTR const unsigned char 
  2578 ;;		 -> ciclo(10), frecuencia(10), 
  2579 ;; Auto vars:     Size  Location     Type
  2580 ;;  a               2   11[COMRAM] int 
  2581 ;;  sign            1   10[COMRAM] unsigned char 
  2582 ;; Return value:  Size  Location     Type
  2583 ;;                  2    6[COMRAM] int 
  2584 ;; Registers used:
  2585 ;;		wreg, fsr2l, fsr2h, status,2, status,0, prodl, prodh, cstack
  2586 ;; Tracked objects:
  2587 ;;		On entry : 0/0
  2588 ;;		On exit  : 0/0
  2589 ;;		Unchanged: 0/0
  2590 ;; Data sizes:     COMRAM   BANK0   BANK1   BANK2   BANK3   BANK4   BANK5   BANK6   BANK7
  2591 ;;      Params:         2       0       0       0       0       0       0       0       0
  2592 ;;      Locals:         3       0       0       0       0       0       0       0       0
  2593 ;;      Temps:          2       0       0       0       0       0       0       0       0
  2594 ;;      Totals:         7       0       0       0       0       0       0       0       0
  2595 ;;Total ram usage:        7 bytes
  2596 ;; Hardware stack levels used:    1
  2597 ;; Hardware stack levels required when called:    1
  2598 ;; This function calls:
  2599 ;;		___wmul
  2600 ;;		_isdigit
  2601 ;; This function is called by:
  2602 ;;		_main
  2603 ;;		_Prueba1
  2604 ;; This function uses a non-reentrant model
  2605 ;;
  2606                           
  2607                           	psect	text2
  2608  001E4A                     __ptext2:
  2609                           	opt stack 0
  2610  001E4A                     _atoi:
  2611                           	opt stack 29
  2612                           
  2613                           ;incstack = 0
  2614  001E4A  D002               	goto	l2830
  2615  001E4C                     l2828:
  2616  001E4C  4A07               	infsnz	atoi@s,f,c
  2617  001E4E  2A08               	incf	atoi@s+1,f,c
  2618  001E50                     l2830:
  2619  001E50  C007  FFD9         	movff	atoi@s,fsr2l
  2620  001E54  C008  FFDA         	movff	atoi@s+1,fsr2h
  2621  001E58  50DF               	movf	indf2,w,c
  2622  001E5A  0A20               	xorlw	32
  2623  001E5C  B4D8               	btfsc	status,2,c
  2624  001E5E  D7F6               	goto	l2828
  2625  001E60  C007  FFD9         	movff	atoi@s,fsr2l
  2626  001E64  C008  FFDA         	movff	atoi@s+1,fsr2h
  2627  001E68  50DF               	movf	indf2,w,c
  2628  001E6A  0A09               	xorlw	9
  2629  001E6C  B4D8               	btfsc	status,2,c
  2630  001E6E  D7EE               	goto	l2828
  2631  001E70  0E00               	movlw	0
  2632  001E72  6E0D               	movwf	atoi@a+1,c
  2633  001E74  0E00               	movlw	0
  2634  001E76  6E0C               	movwf	atoi@a,c
  2635  001E78  0E00               	movlw	0
  2636  001E7A  6E0B               	movwf	atoi@sign,c
  2637  001E7C  0E2D               	movlw	45
  2638  001E7E  C007  FFD9         	movff	atoi@s,fsr2l
  2639  001E82  C008  FFDA         	movff	atoi@s+1,fsr2h
  2640  001E86  62DF               	cpfseq	indf2,c
  2641  001E88  D002               	goto	l2840
  2642  001E8A  2A0B               	incf	atoi@sign,f,c
  2643  001E8C  D023               	goto	L1
  2644  001E8E                     l2840:
  2645  001E8E  0E2B               	movlw	43
  2646  001E90  C007  FFD9         	movff	atoi@s,fsr2l
  2647  001E94  C008  FFDA         	movff	atoi@s+1,fsr2h
  2648  001E98  62DF               	cpfseq	indf2,c
  2649  001E9A  D01E               	goto	l2848
  2650  001E9C  D01B               	goto	L1
  2651  001E9E                     l2844:
  2652  001E9E  C00C  F001         	movff	atoi@a,___wmul@multiplier
  2653  001EA2  C00D  F002         	movff	atoi@a+1,___wmul@multiplier+1
  2654  001EA6  0E00               	movlw	0
  2655  001EA8  6E04               	movwf	___wmul@multiplicand+1,c
  2656  001EAA  0E0A               	movlw	10
  2657  001EAC  6E03               	movwf	___wmul@multiplicand,c
  2658  001EAE  ECA6  F012         	call	___wmul	;wreg free
  2659  001EB2  C007  FFD9         	movff	atoi@s,fsr2l
  2660  001EB6  C008  FFDA         	movff	atoi@s+1,fsr2h
  2661  001EBA  50DF               	movf	indf2,w,c
  2662  001EBC  6E09               	movwf	??_atoi& (0+255),c
  2663  001EBE  6A0A               	clrf	(??_atoi+1)& (0+255),c
  2664  001EC0  5001               	movf	?___wmul,w,c
  2665  001EC2  2609               	addwf	??_atoi,f,c
  2666  001EC4  5002               	movf	?___wmul+1,w,c
  2667  001EC6  220A               	addwfc	??_atoi+1,f,c
  2668  001EC8  0ED0               	movlw	208
  2669  001ECA  2409               	addwf	??_atoi,w,c
  2670  001ECC  6E0C               	movwf	atoi@a,c
  2671  001ECE  0EFF               	movlw	255
  2672  001ED0  200A               	addwfc	??_atoi+1,w,c
  2673  001ED2  6E0D               	movwf	atoi@a+1,c
  2674  001ED4                     L1:
  2675  001ED4  4A07               	infsnz	atoi@s,f,c
  2676  001ED6  2A08               	incf	atoi@s+1,f,c
  2677  001ED8                     l2848:
  2678  001ED8  C007  FFD9         	movff	atoi@s,fsr2l
  2679  001EDC  C008  FFDA         	movff	atoi@s+1,fsr2h
  2680  001EE0  50DF               	movf	indf2,w,c
  2681  001EE2  ECB9  F012         	call	_isdigit
  2682  001EE6  B0D8               	btfsc	status,0,c
  2683  001EE8  D7DA               	goto	l2844
  2684  001EEA  500B               	movf	atoi@sign,w,c
  2685  001EEC  B4D8               	btfsc	status,2,c
  2686  001EEE  D00D               	goto	l617
  2687  001EF0  C00C  F009         	movff	atoi@a,??_atoi
  2688  001EF4  C00D  F00A         	movff	atoi@a+1,??_atoi+1
  2689  001EF8  1E09               	comf	??_atoi,f,c
  2690  001EFA  1E0A               	comf	??_atoi+1,f,c
  2691  001EFC  4A09               	infsnz	??_atoi,f,c
  2692  001EFE  2A0A               	incf	??_atoi+1,f,c
  2693  001F00  C009  F007         	movff	??_atoi,?_atoi
  2694  001F04  C00A  F008         	movff	??_atoi+1,?_atoi+1
  2695  001F08  0012               	return	
  2696  001F0A                     l617:
  2697  001F0A  C00C  F007         	movff	atoi@a,?_atoi
  2698  001F0E  C00D  F008         	movff	atoi@a+1,?_atoi+1
  2699  001F12  0012               	return	
  2700  001F14                     __end_of_atoi:
  2701                           	opt stack 0
  2702                           tblptru	equ	0xFF8
  2703                           tblptrh	equ	0xFF7
  2704                           tblptrl	equ	0xFF6
  2705                           tablat	equ	0xFF5
  2706                           postinc0	equ	0xFEE
  2707                           wreg	equ	0xFE8
  2708                           postdec1	equ	0xFE5
  2709                           fsr1l	equ	0xFE1
  2710                           indf2	equ	0xFDF
  2711                           fsr2h	equ	0xFDA
  2712                           fsr2l	equ	0xFD9
  2713                           status	equ	0xFD8
  2714                           
  2715 ;; *************** function _isdigit *****************
  2716 ;; Defined at:
  2717 ;;		line 8 in file "/opt/microchip/xc8/v1.32/sources/common/isdigit.c"
  2718 ;; Parameters:    Size  Location     Type
  2719 ;;  c               1    wreg     unsigned char 
  2720 ;; Auto vars:     Size  Location     Type
  2721 ;;  c               1    2[COMRAM] unsigned char 
  2722 ;; Return value:  Size  Location     Type
  2723 ;;		None               void
  2724 ;; Registers used:
  2725 ;;		wreg, status,2, status,0
  2726 ;; Tracked objects:
  2727 ;;		On entry : 0/0
  2728 ;;		On exit  : 0/0
  2729 ;;		Unchanged: 0/0
  2730 ;; Data sizes:     COMRAM   BANK0   BANK1   BANK2   BANK3   BANK4   BANK5   BANK6   BANK7
  2731 ;;      Params:         0       0       0       0       0       0       0       0       0
  2732 ;;      Locals:         2       0       0       0       0       0       0       0       0
  2733 ;;      Temps:          1       0       0       0       0       0       0       0       0
  2734 ;;      Totals:         3       0       0       0       0       0       0       0       0
  2735 ;;Total ram usage:        3 bytes
  2736 ;; Hardware stack levels used:    1
  2737 ;; This function calls:
  2738 ;;		Nothing
  2739 ;; This function is called by:
  2740 ;;		_atoi
  2741 ;; This function uses a non-reentrant model
  2742 ;;
  2743                           
  2744                           	psect	text3
  2745  002572                     __ptext3:
  2746                           	opt stack 0
  2747  002572                     _isdigit:
  2748                           	opt stack 29
  2749                           
  2750                           ;incstack = 0
  2751                           ;isdigit@c stored from wreg
  2752  002572  6E03               	movwf	isdigit@c,c
  2753  002574  0E00               	movlw	0
  2754  002576  6E02               	movwf	_isdigit$933,c
  2755  002578  0E3A               	movlw	58
  2756  00257A  5C03               	subwf	isdigit@c,w,c
  2757  00257C  B0D8               	btfsc	status,0,c
  2758  00257E  D005               	goto	l2750
  2759  002580  0E2F               	movlw	47
  2760  002582  6403               	cpfsgt	isdigit@c,c
  2761  002584  D002               	goto	l2750
  2762  002586  0E01               	movlw	1
  2763  002588  6E02               	movwf	_isdigit$933,c
  2764  00258A                     l2750:
  2765  00258A  C002  F001         	movff	_isdigit$933,??_isdigit
  2766  00258E  3001               	rrcf	??_isdigit,w,c
  2767  002590  0012               	return	
  2768  002592                     __end_of_isdigit:
  2769                           	opt stack 0
  2770                           tblptru	equ	0xFF8
  2771                           tblptrh	equ	0xFF7
  2772                           tblptrl	equ	0xFF6
  2773                           tablat	equ	0xFF5
  2774                           postinc0	equ	0xFEE
  2775                           wreg	equ	0xFE8
  2776                           postdec1	equ	0xFE5
  2777                           fsr1l	equ	0xFE1
  2778                           indf2	equ	0xFDF
  2779                           fsr2h	equ	0xFDA
  2780                           fsr2l	equ	0xFD9
  2781                           status	equ	0xFD8
  2782                           
  2783 ;; *************** function ___wmul *****************
  2784 ;; Defined at:
  2785 ;;		line 15 in file "/opt/microchip/xc8/v1.32/sources/common/Umul16.c"
  2786 ;; Parameters:    Size  Location     Type
  2787 ;;  multiplier      2    0[COMRAM] unsigned int 
  2788 ;;  multiplicand    2    2[COMRAM] unsigned int 
  2789 ;; Auto vars:     Size  Location     Type
  2790 ;;  product         2    4[COMRAM] unsigned int 
  2791 ;; Return value:  Size  Location     Type
  2792 ;;                  2    0[COMRAM] unsigned int 
  2793 ;; Registers used:
  2794 ;;		wreg, status,2, status,0, prodl, prodh
  2795 ;; Tracked objects:
  2796 ;;		On entry : 0/0
  2797 ;;		On exit  : 0/0
  2798 ;;		Unchanged: 0/0
  2799 ;; Data sizes:     COMRAM   BANK0   BANK1   BANK2   BANK3   BANK4   BANK5   BANK6   BANK7
  2800 ;;      Params:         4       0       0       0       0       0       0       0       0
  2801 ;;      Locals:         2       0       0       0       0       0       0       0       0
  2802 ;;      Temps:          0       0       0       0       0       0       0       0       0
  2803 ;;      Totals:         6       0       0       0       0       0       0       0       0
  2804 ;;Total ram usage:        6 bytes
  2805 ;; Hardware stack levels used:    1
  2806 ;; This function calls:
  2807 ;;		Nothing
  2808 ;; This function is called by:
  2809 ;;		_atoi
  2810 ;; This function uses a non-reentrant model
  2811 ;;
  2812                           
  2813                           	psect	text4
  2814  00254C                     __ptext4:
  2815                           	opt stack 0
  2816  00254C                     ___wmul:
  2817                           	opt stack 29
  2818                           
  2819                           ;incstack = 0
  2820  00254C  5001               	movf	___wmul@multiplier,w,c
  2821  00254E  0203               	mulwf	___wmul@multiplicand,c
  2822  002550  CFF3 F005          	movff	prodl,___wmul@product
  2823  002554  CFF4 F006          	movff	prodh,___wmul@product+1
  2824  002558  5001               	movf	___wmul@multiplier,w,c
  2825  00255A  0204               	mulwf	___wmul@multiplicand+1,c
  2826  00255C  50F3               	movf	prodl,w,c
  2827  00255E  2606               	addwf	___wmul@product+1,f,c
  2828  002560  5002               	movf	___wmul@multiplier+1,w,c
  2829  002562  0203               	mulwf	___wmul@multiplicand,c
  2830  002564  50F3               	movf	prodl,w,c
  2831  002566  2606               	addwf	___wmul@product+1,f,c
  2832  002568  C005  F001         	movff	___wmul@product,?___wmul
  2833  00256C  C006  F002         	movff	___wmul@product+1,?___wmul+1
  2834  002570  0012               	return	
  2835  002572                     __end_of___wmul:
  2836                           	opt stack 0
  2837                           tblptru	equ	0xFF8
  2838                           tblptrh	equ	0xFF7
  2839                           tblptrl	equ	0xFF6
  2840                           tablat	equ	0xFF5
  2841                           prodh	equ	0xFF4
  2842                           prodl	equ	0xFF3
  2843                           postinc0	equ	0xFEE
  2844                           wreg	equ	0xFE8
  2845                           postdec1	equ	0xFE5
  2846                           fsr1l	equ	0xFE1
  2847                           indf2	equ	0xFDF
  2848                           fsr2h	equ	0xFDA
  2849                           fsr2l	equ	0xFD9
  2850                           status	equ	0xFD8
  2851                           
  2852 ;; *************** function _TRIANGULAR_GENERAR_3 *****************
  2853 ;; Defined at:
  2854 ;;		line 42 in file "Triangular.c"
  2855 ;; Parameters:    Size  Location     Type
  2856 ;;		None
  2857 ;; Auto vars:     Size  Location     Type
  2858 ;;  valoresTrian   40    3[COMRAM] int [20]
  2859 ;;  i               2   43[COMRAM] int 
  2860 ;;  key             1    0        unsigned char 
  2861 ;; Return value:  Size  Location     Type
  2862 ;;		None               void
  2863 ;; Registers used:
  2864 ;;		wreg, fsr1l, fsr1h, fsr2l, fsr2h, status,2, status,0
  2865 ;; Tracked objects:
  2866 ;;		On entry : 0/0
  2867 ;;		On exit  : 0/0
  2868 ;;		Unchanged: 0/0
  2869 ;; Data sizes:     COMRAM   BANK0   BANK1   BANK2   BANK3   BANK4   BANK5   BANK6   BANK7
  2870 ;;      Params:         0       0       0       0       0       0       0       0       0
  2871 ;;      Locals:        42       0       0       0       0       0       0       0       0
  2872 ;;      Temps:          3       0       0       0       0       0       0       0       0
  2873 ;;      Totals:        45       0       0       0       0       0       0       0       0
  2874 ;;Total ram usage:       45 bytes
  2875 ;; Hardware stack levels used:    1
  2876 ;; This function calls:
  2877 ;;		Nothing
  2878 ;; This function is called by:
  2879 ;;		_main
  2880 ;; This function uses a non-reentrant model
  2881 ;;
  2882                           
  2883                           	psect	text5
  2884  0021A2                     __ptext5:
  2885                           	opt stack 0
  2886  0021A2                     _TRIANGULAR_GENERAR_3:
  2887                           	opt stack 30
  2888                           
  2889                           ;Triangular.c: 43: OSCCON=0b01010111;
  2890                           
  2891                           ;incstack = 0
  2892  0021A2  0E57               	movlw	87
  2893  0021A4  6ED3               	movwf	4051,c	;volatile
  2894                           
  2895                           ;Triangular.c: 44: char key;
  2896                           ;Triangular.c: 45: int i;
  2897                           ;Triangular.c: 46: int valoresTrian [20]={3,6,9,12,16,19,22,25,28,31,28,25,22,19,16,12,9
      +                          ,6,3,0};
  2898  0021A6  EE21  F096         	lfsr	2,TRIANGULAR_GENERAR_3@F7366
  2899  0021AA  EE10  F004         	lfsr	1,TRIANGULAR_GENERAR_3@valoresTrian
  2900  0021AE  0E28               	movlw	40
  2901  0021B0                     u2461:
  2902  0021B0  CFDE FFE6          	movff	postinc2,postinc1
  2903  0021B4  2EE8               	decfsz	wreg,f,c
  2904  0021B6  D7FC               	goto	u2461
  2905                           
  2906                           ;Triangular.c: 47: VREFCON1=0b10100000;
  2907  0021B8  0EA0               	movlw	160
  2908  0021BA  6E7C               	movwf	3964,c	;volatile
  2909                           
  2910                           ;Triangular.c: 50: for(i=0;i<20;i++){
  2911                           
  2912                           ;Triangular.c: 49: while(1){
  2913  0021BC  0E00               	movlw	0
  2914  0021BE  6E2D               	movwf	TRIANGULAR_GENERAR_3@i+1,c
  2915  0021C0  0E00               	movlw	0
  2916  0021C2  6E2C               	movwf	TRIANGULAR_GENERAR_3@i,c
  2917  0021C4  502D               	movf	TRIANGULAR_GENERAR_3@i+1,w,c
  2918  0021C6  0A80               	xorlw	128
  2919  0021C8  0F80               	addlw	-128
  2920  0021CA  0E14               	movlw	20
  2921  0021CC  B4D8               	btfsc	status,2,c
  2922  0021CE  5C2C               	subwf	TRIANGULAR_GENERAR_3@i,w,c
  2923  0021D0  B0D8               	btfsc	status,0,c
  2924  0021D2  0012               	return	
  2925                           
  2926                           ;Triangular.c: 51: VREFCON2bits.DACR=valoresTrian[i];
  2927  0021D4  0E04               	movlw	low TRIANGULAR_GENERAR_3@valoresTrian
  2928  0021D6  6E01               	movwf	??_TRIANGULAR_GENERAR_3& (0+255),c
  2929  0021D8  0E00               	movlw	high TRIANGULAR_GENERAR_3@valoresTrian
  2930  0021DA  6E02               	movwf	(??_TRIANGULAR_GENERAR_3+1)& (0+255),c
  2931  0021DC  90D8               	bcf	status,0,c
  2932  0021DE  342C               	rlcf	TRIANGULAR_GENERAR_3@i,w,c
  2933  0021E0  6ED9               	movwf	fsr2l,c
  2934  0021E2  342D               	rlcf	TRIANGULAR_GENERAR_3@i+1,w,c
  2935  0021E4  6EDA               	movwf	fsr2h,c
  2936  0021E6  5001               	movf	??_TRIANGULAR_GENERAR_3,w,c
  2937  0021E8  26D9               	addwf	fsr2l,f,c
  2938  0021EA  5002               	movf	??_TRIANGULAR_GENERAR_3+1,w,c
  2939  0021EC  22DA               	addwfc	fsr2h,f,c
  2940  0021EE  50DF               	movf	indf2,w,c
  2941  0021F0  6E03               	movwf	(??_TRIANGULAR_GENERAR_3+2)& (0+255),c
  2942  0021F2  507B               	movf	3963,w,c	;volatile
  2943  0021F4  1803               	xorwf	??_TRIANGULAR_GENERAR_3+2,w,c
  2944  0021F6  0BE0               	andlw	-32
  2945  0021F8  1803               	xorwf	??_TRIANGULAR_GENERAR_3+2,w,c
  2946  0021FA  6E7B               	movwf	3963,c	;volatile
  2947                           
  2948                           ;Triangular.c: 52: _delay((unsigned long)((1000)*(4000000/4000000.0)));
  2949  0021FC  0EFA               	movlw	250
  2950  0021FE                     u3087:
  2951  0021FE  F000               	nop	
  2952  002200  2EE8               	decfsz	wreg,f,c
  2953  002202  D7FD               	goto	u3087
  2954  002204  4A2C               	infsnz	TRIANGULAR_GENERAR_3@i,f,c
  2955  002206  2A2D               	incf	TRIANGULAR_GENERAR_3@i+1,f,c
  2956  002208  D7DD               	goto	L2
  2957  00220A                     __end_of_TRIANGULAR_GENERAR_3:
  2958                           	opt stack 0
  2959                           tblptru	equ	0xFF8
  2960                           tblptrh	equ	0xFF7
  2961                           tblptrl	equ	0xFF6
  2962                           tablat	equ	0xFF5
  2963                           prodh	equ	0xFF4
  2964                           prodl	equ	0xFF3
  2965                           postinc0	equ	0xFEE
  2966                           wreg	equ	0xFE8
  2967                           postinc1	equ	0xFE6
  2968                           postdec1	equ	0xFE5
  2969                           fsr1l	equ	0xFE1
  2970                           indf2	equ	0xFDF
  2971                           postinc2	equ	0xFDE
  2972                           fsr2h	equ	0xFDA
  2973                           fsr2l	equ	0xFD9
  2974                           status	equ	0xFD8
  2975                           
  2976 ;; *************** function _TRIANGULAR_GENERAR_2 *****************
  2977 ;; Defined at:
  2978 ;;		line 26 in file "Triangular.c"
  2979 ;; Parameters:    Size  Location     Type
  2980 ;;		None
  2981 ;; Auto vars:     Size  Location     Type
  2982 ;;  valoresTrian   30    3[COMRAM] int [15]
  2983 ;;  i               2   33[COMRAM] int 
  2984 ;;  key             1    0        unsigned char 
  2985 ;; Return value:  Size  Location     Type
  2986 ;;		None               void
  2987 ;; Registers used:
  2988 ;;		wreg, fsr1l, fsr1h, fsr2l, fsr2h, status,2, status,0
  2989 ;; Tracked objects:
  2990 ;;		On entry : 0/0
  2991 ;;		On exit  : 0/0
  2992 ;;		Unchanged: 0/0
  2993 ;; Data sizes:     COMRAM   BANK0   BANK1   BANK2   BANK3   BANK4   BANK5   BANK6   BANK7
  2994 ;;      Params:         0       0       0       0       0       0       0       0       0
  2995 ;;      Locals:        32       0       0       0       0       0       0       0       0
  2996 ;;      Temps:          3       0       0       0       0       0       0       0       0
  2997 ;;      Totals:        35       0       0       0       0       0       0       0       0
  2998 ;;Total ram usage:       35 bytes
  2999 ;; Hardware stack levels used:    1
  3000 ;; This function calls:
  3001 ;;		Nothing
  3002 ;; This function is called by:
  3003 ;;		_main
  3004 ;; This function uses a non-reentrant model
  3005 ;;
  3006                           
  3007                           	psect	text6
  3008  00220A                     __ptext6:
  3009                           	opt stack 0
  3010  00220A                     _TRIANGULAR_GENERAR_2:
  3011                           	opt stack 30
  3012                           
  3013                           ;Triangular.c: 27: OSCCON=0b01010111;
  3014                           
  3015                           ;incstack = 0
  3016  00220A  0E57               	movlw	87
  3017  00220C  6ED3               	movwf	4051,c	;volatile
  3018                           
  3019                           ;Triangular.c: 28: char key;
  3020                           ;Triangular.c: 29: int i;
  3021                           ;Triangular.c: 30: int valoresTrian [15]={4,8,12,17,21,25,29,31,29,25,21,17,12,8,4};
  3022  00220E  EE21  F0BE         	lfsr	2,TRIANGULAR_GENERAR_2@F7361
  3023  002212  EE10  F004         	lfsr	1,TRIANGULAR_GENERAR_2@valoresTrian
  3024  002216  0E1E               	movlw	30
  3025  002218                     u2431:
  3026  002218  CFDE FFE6          	movff	postinc2,postinc1
  3027  00221C  2EE8               	decfsz	wreg,f,c
  3028  00221E  D7FC               	goto	u2431
  3029                           
  3030                           ;Triangular.c: 31: VREFCON1=0b10100000;
  3031  002220  0EA0               	movlw	160
  3032  002222  6E7C               	movwf	3964,c	;volatile
  3033                           
  3034                           ;Triangular.c: 34: for(i=0;i<15;i++){
  3035                           
  3036                           ;Triangular.c: 33: while(1){
  3037  002224  0E00               	movlw	0
  3038  002226  6E23               	movwf	TRIANGULAR_GENERAR_2@i+1,c
  3039  002228  0E00               	movlw	0
  3040  00222A  6E22               	movwf	TRIANGULAR_GENERAR_2@i,c
  3041  00222C  5023               	movf	TRIANGULAR_GENERAR_2@i+1,w,c
  3042  00222E  0A80               	xorlw	128
  3043  002230  0F80               	addlw	-128
  3044  002232  0E0F               	movlw	15
  3045  002234  B4D8               	btfsc	status,2,c
  3046  002236  5C22               	subwf	TRIANGULAR_GENERAR_2@i,w,c
  3047  002238  B0D8               	btfsc	status,0,c
  3048  00223A  0012               	return	
  3049                           
  3050                           ;Triangular.c: 35: VREFCON2bits.DACR=valoresTrian[i];
  3051  00223C  0E04               	movlw	low TRIANGULAR_GENERAR_2@valoresTrian
  3052  00223E  6E01               	movwf	??_TRIANGULAR_GENERAR_2& (0+255),c
  3053  002240  0E00               	movlw	high TRIANGULAR_GENERAR_2@valoresTrian
  3054  002242  6E02               	movwf	(??_TRIANGULAR_GENERAR_2+1)& (0+255),c
  3055  002244  90D8               	bcf	status,0,c
  3056  002246  3422               	rlcf	TRIANGULAR_GENERAR_2@i,w,c
  3057  002248  6ED9               	movwf	fsr2l,c
  3058  00224A  3423               	rlcf	TRIANGULAR_GENERAR_2@i+1,w,c
  3059  00224C  6EDA               	movwf	fsr2h,c
  3060  00224E  5001               	movf	??_TRIANGULAR_GENERAR_2,w,c
  3061  002250  26D9               	addwf	fsr2l,f,c
  3062  002252  5002               	movf	??_TRIANGULAR_GENERAR_2+1,w,c
  3063  002254  22DA               	addwfc	fsr2h,f,c
  3064  002256  50DF               	movf	indf2,w,c
  3065  002258  6E03               	movwf	(??_TRIANGULAR_GENERAR_2+2)& (0+255),c
  3066  00225A  507B               	movf	3963,w,c	;volatile
  3067  00225C  1803               	xorwf	??_TRIANGULAR_GENERAR_2+2,w,c
  3068  00225E  0BE0               	andlw	-32
  3069  002260  1803               	xorwf	??_TRIANGULAR_GENERAR_2+2,w,c
  3070  002262  6E7B               	movwf	3963,c	;volatile
  3071                           
  3072                           ;Triangular.c: 36: _delay((unsigned long)((1000)*(4000000/4000000.0)));
  3073  002264  0EFA               	movlw	250
  3074  002266                     u3097:
  3075  002266  F000               	nop	
  3076  002268  2EE8               	decfsz	wreg,f,c
  3077  00226A  D7FD               	goto	u3097
  3078  00226C  4A22               	infsnz	TRIANGULAR_GENERAR_2@i,f,c
  3079  00226E  2A23               	incf	TRIANGULAR_GENERAR_2@i+1,f,c
  3080  002270  D7DD               	goto	L3
  3081  002272                     __end_of_TRIANGULAR_GENERAR_2:
  3082                           	opt stack 0
  3083                           tblptru	equ	0xFF8
  3084                           tblptrh	equ	0xFF7
  3085                           tblptrl	equ	0xFF6
  3086                           tablat	equ	0xFF5
  3087                           prodh	equ	0xFF4
  3088                           prodl	equ	0xFF3
  3089                           postinc0	equ	0xFEE
  3090                           wreg	equ	0xFE8
  3091                           postinc1	equ	0xFE6
  3092                           postdec1	equ	0xFE5
  3093                           fsr1l	equ	0xFE1
  3094                           indf2	equ	0xFDF
  3095                           postinc2	equ	0xFDE
  3096                           fsr2h	equ	0xFDA
  3097                           fsr2l	equ	0xFD9
  3098                           status	equ	0xFD8
  3099                           
  3100 ;; *************** function _TRIANGULAR_GENERAR_1 *****************
  3101 ;; Defined at:
  3102 ;;		line 10 in file "Triangular.c"
  3103 ;; Parameters:    Size  Location     Type
  3104 ;;		None
  3105 ;; Auto vars:     Size  Location     Type
  3106 ;;  valoresTrian   20    3[COMRAM] int [10]
  3107 ;;  i               2   23[COMRAM] int 
  3108 ;;  key             1    0        unsigned char 
  3109 ;; Return value:  Size  Location     Type
  3110 ;;		None               void
  3111 ;; Registers used:
  3112 ;;		wreg, fsr1l, fsr1h, fsr2l, fsr2h, status,2, status,0
  3113 ;; Tracked objects:
  3114 ;;		On entry : 0/0
  3115 ;;		On exit  : 0/0
  3116 ;;		Unchanged: 0/0
  3117 ;; Data sizes:     COMRAM   BANK0   BANK1   BANK2   BANK3   BANK4   BANK5   BANK6   BANK7
  3118 ;;      Params:         0       0       0       0       0       0       0       0       0
  3119 ;;      Locals:        22       0       0       0       0       0       0       0       0
  3120 ;;      Temps:          3       0       0       0       0       0       0       0       0
  3121 ;;      Totals:        25       0       0       0       0       0       0       0       0
  3122 ;;Total ram usage:       25 bytes
  3123 ;; Hardware stack levels used:    1
  3124 ;; This function calls:
  3125 ;;		Nothing
  3126 ;; This function is called by:
  3127 ;;		_main
  3128 ;; This function uses a non-reentrant model
  3129 ;;
  3130                           
  3131                           	psect	text7
  3132  002272                     __ptext7:
  3133                           	opt stack 0
  3134  002272                     _TRIANGULAR_GENERAR_1:
  3135                           	opt stack 30
  3136                           
  3137                           ;Triangular.c: 11: OSCCON=0b01010111;
  3138                           
  3139                           ;incstack = 0
  3140  002272  0E57               	movlw	87
  3141  002274  6ED3               	movwf	4051,c	;volatile
  3142                           
  3143                           ;Triangular.c: 12: char key;
  3144                           ;Triangular.c: 13: int i;
  3145                           ;Triangular.c: 14: int valoresTrian [10]={6,12,19,25,31,25,19,12,6,0};
  3146  002276  EE21  F0DC         	lfsr	2,TRIANGULAR_GENERAR_1@F7356
  3147  00227A  EE10  F004         	lfsr	1,TRIANGULAR_GENERAR_1@valoresTrian
  3148  00227E  0E14               	movlw	20
  3149  002280                     u2401:
  3150  002280  CFDE FFE6          	movff	postinc2,postinc1
  3151  002284  2EE8               	decfsz	wreg,f,c
  3152  002286  D7FC               	goto	u2401
  3153                           
  3154                           ;Triangular.c: 15: VREFCON1=0b10100000;
  3155  002288  0EA0               	movlw	160
  3156  00228A  6E7C               	movwf	3964,c	;volatile
  3157                           
  3158                           ;Triangular.c: 18: for(i=0;i<10;i++){
  3159                           
  3160                           ;Triangular.c: 17: while(1){
  3161  00228C  0E00               	movlw	0
  3162  00228E  6E19               	movwf	TRIANGULAR_GENERAR_1@i+1,c
  3163  002290  0E00               	movlw	0
  3164  002292  6E18               	movwf	TRIANGULAR_GENERAR_1@i,c
  3165  002294  5019               	movf	TRIANGULAR_GENERAR_1@i+1,w,c
  3166  002296  0A80               	xorlw	128
  3167  002298  0F80               	addlw	-128
  3168  00229A  0E0A               	movlw	10
  3169  00229C  B4D8               	btfsc	status,2,c
  3170  00229E  5C18               	subwf	TRIANGULAR_GENERAR_1@i,w,c
  3171  0022A0  B0D8               	btfsc	status,0,c
  3172  0022A2  0012               	return	
  3173                           
  3174                           ;Triangular.c: 19: VREFCON2bits.DACR=valoresTrian[i];
  3175  0022A4  0E04               	movlw	low TRIANGULAR_GENERAR_1@valoresTrian
  3176  0022A6  6E01               	movwf	??_TRIANGULAR_GENERAR_1& (0+255),c
  3177  0022A8  0E00               	movlw	high TRIANGULAR_GENERAR_1@valoresTrian
  3178  0022AA  6E02               	movwf	(??_TRIANGULAR_GENERAR_1+1)& (0+255),c
  3179  0022AC  90D8               	bcf	status,0,c
  3180  0022AE  3418               	rlcf	TRIANGULAR_GENERAR_1@i,w,c
  3181  0022B0  6ED9               	movwf	fsr2l,c
  3182  0022B2  3419               	rlcf	TRIANGULAR_GENERAR_1@i+1,w,c
  3183  0022B4  6EDA               	movwf	fsr2h,c
  3184  0022B6  5001               	movf	??_TRIANGULAR_GENERAR_1,w,c
  3185  0022B8  26D9               	addwf	fsr2l,f,c
  3186  0022BA  5002               	movf	??_TRIANGULAR_GENERAR_1+1,w,c
  3187  0022BC  22DA               	addwfc	fsr2h,f,c
  3188  0022BE  50DF               	movf	indf2,w,c
  3189  0022C0  6E03               	movwf	(??_TRIANGULAR_GENERAR_1+2)& (0+255),c
  3190  0022C2  507B               	movf	3963,w,c	;volatile
  3191  0022C4  1803               	xorwf	??_TRIANGULAR_GENERAR_1+2,w,c
  3192  0022C6  0BE0               	andlw	-32
  3193  0022C8  1803               	xorwf	??_TRIANGULAR_GENERAR_1+2,w,c
  3194  0022CA  6E7B               	movwf	3963,c	;volatile
  3195                           
  3196                           ;Triangular.c: 20: _delay((unsigned long)((1000)*(4000000/4000000.0)));
  3197  0022CC  0EFA               	movlw	250
  3198  0022CE                     u3107:
  3199  0022CE  F000               	nop	
  3200  0022D0  2EE8               	decfsz	wreg,f,c
  3201  0022D2  D7FD               	goto	u3107
  3202  0022D4  4A18               	infsnz	TRIANGULAR_GENERAR_1@i,f,c
  3203  0022D6  2A19               	incf	TRIANGULAR_GENERAR_1@i+1,f,c
  3204  0022D8  D7DD               	goto	L4
  3205  0022DA                     __end_of_TRIANGULAR_GENERAR_1:
  3206                           	opt stack 0
  3207                           tblptru	equ	0xFF8
  3208                           tblptrh	equ	0xFF7
  3209                           tblptrl	equ	0xFF6
  3210                           tablat	equ	0xFF5
  3211                           prodh	equ	0xFF4
  3212                           prodl	equ	0xFF3
  3213                           postinc0	equ	0xFEE
  3214                           wreg	equ	0xFE8
  3215                           postinc1	equ	0xFE6
  3216                           postdec1	equ	0xFE5
  3217                           fsr1l	equ	0xFE1
  3218                           indf2	equ	0xFDF
  3219                           postinc2	equ	0xFDE
  3220                           fsr2h	equ	0xFDA
  3221                           fsr2l	equ	0xFD9
  3222                           status	equ	0xFD8
  3223                           
  3224 ;; *************** function _SENO_GENERAR_3 *****************
  3225 ;; Defined at:
  3226 ;;		line 47 in file "SENO.c"
  3227 ;; Parameters:    Size  Location     Type
  3228 ;;		None
  3229 ;; Auto vars:     Size  Location     Type
  3230 ;;  valoresSeno   100    0[BANK0 ] int [50]
  3231 ;;  i               2  100[BANK0 ] int 
  3232 ;;  key             1    0        unsigned char 
  3233 ;; Return value:  Size  Location     Type
  3234 ;;		None               void
  3235 ;; Registers used:
  3236 ;;		wreg, fsr1l, fsr1h, fsr2l, fsr2h, status,2, status,0
  3237 ;; Tracked objects:
  3238 ;;		On entry : 0/0
  3239 ;;		On exit  : 0/0
  3240 ;;		Unchanged: 0/0
  3241 ;; Data sizes:     COMRAM   BANK0   BANK1   BANK2   BANK3   BANK4   BANK5   BANK6   BANK7
  3242 ;;      Params:         0       0       0       0       0       0       0       0       0
  3243 ;;      Locals:         0     102       0       0       0       0       0       0       0
  3244 ;;      Temps:          3       0       0       0       0       0       0       0       0
  3245 ;;      Totals:         3     102       0       0       0       0       0       0       0
  3246 ;;Total ram usage:      105 bytes
  3247 ;; Hardware stack levels used:    1
  3248 ;; This function calls:
  3249 ;;		Nothing
  3250 ;; This function is called by:
  3251 ;;		_main
  3252 ;; This function uses a non-reentrant model
  3253 ;;
  3254                           
  3255                           	psect	text8
  3256  00212E                     __ptext8:
  3257                           	opt stack 0
  3258  00212E                     _SENO_GENERAR_3:
  3259                           	opt stack 30
  3260                           
  3261                           ;SENO.c: 49: OSCCON=0b01010111;
  3262                           
  3263                           ;incstack = 0
  3264  00212E  0E57               	movlw	87
  3265  002130  6ED3               	movwf	4051,c	;volatile
  3266                           
  3267                           ;SENO.c: 50: char key;
  3268                           ;SENO.c: 51: int i;
  3269                           ;SENO.c: 52: int valoresSeno [50]= {16,17,19,21,23,25,26,27,29,30,30,31,31,31,31,30,30,2
      +                          9,27,26,25,23,21,19,17,16,14,12,10,8,6,5,4,2,1,1,0,0,0,0,1,1,2,4,5,6,8,10,12,14};
  3270  002132  EE21  F000         	lfsr	2,SENO_GENERAR_3@F7366
  3271  002136  EE10  F060         	lfsr	1,SENO_GENERAR_3@valoresSeno
  3272  00213A  0E64               	movlw	100
  3273  00213C                     u2551:
  3274  00213C  CFDE FFE6          	movff	postinc2,postinc1
  3275  002140  2EE8               	decfsz	wreg,f,c
  3276  002142  D7FC               	goto	u2551
  3277                           
  3278                           ;SENO.c: 53: VREFCON1=0b10100000;
  3279  002144  0EA0               	movlw	160
  3280  002146  6E7C               	movwf	3964,c	;volatile
  3281                           
  3282                           ;SENO.c: 56: for(i=0;i<50;i++){
  3283                           
  3284                           ;SENO.c: 55: while(1){
  3285  002148  0E00               	movlw	0
  3286  00214A  0100               	movlb	0	; () banked
  3287  00214C  6FC5               	movwf	(SENO_GENERAR_3@i+1)& (0+255),b
  3288  00214E  0E00               	movlw	0
  3289  002150  0100               	movlb	0	; () banked
  3290  002152  6FC4               	movwf	SENO_GENERAR_3@i& (0+255),b
  3291  002154                     
  3292                           ; BSR set to: 0
  3293  002154  0100               	movlb	0	; () banked
  3294  002156  51C5               	movf	(SENO_GENERAR_3@i+1)& (0+255),w,b
  3295  002158  0A80               	xorlw	128
  3296  00215A  0F80               	addlw	-128
  3297  00215C  0E32               	movlw	50
  3298  00215E  B4D8               	btfsc	status,2,c
  3299  002160  5DC4               	subwf	SENO_GENERAR_3@i& (0+255),w,b
  3300  002162  B0D8               	btfsc	status,0,c
  3301  002164  0012               	return	
  3302                           
  3303                           ; BSR set to: 0
  3304                           ;SENO.c: 57: VREFCON2bits.DACR=valoresSeno [i];
  3305                           
  3306                           ; BSR set to: 0
  3307                           
  3308                           ; BSR set to: 0
  3309  002166  0E60               	movlw	low SENO_GENERAR_3@valoresSeno
  3310  002168  6E01               	movwf	??_SENO_GENERAR_3& (0+255),c
  3311  00216A  0E00               	movlw	high SENO_GENERAR_3@valoresSeno
  3312  00216C  6E02               	movwf	(??_SENO_GENERAR_3+1)& (0+255),c
  3313  00216E  90D8               	bcf	status,0,c
  3314  002170  0100               	movlb	0	; () banked
  3315  002172  35C4               	rlcf	SENO_GENERAR_3@i& (0+255),w,b
  3316  002174  6ED9               	movwf	fsr2l,c
  3317  002176  0100               	movlb	0	; () banked
  3318  002178  35C5               	rlcf	(SENO_GENERAR_3@i+1)& (0+255),w,b
  3319  00217A  6EDA               	movwf	fsr2h,c
  3320  00217C  5001               	movf	??_SENO_GENERAR_3,w,c
  3321  00217E  26D9               	addwf	fsr2l,f,c
  3322  002180  5002               	movf	??_SENO_GENERAR_3+1,w,c
  3323  002182  22DA               	addwfc	fsr2h,f,c
  3324  002184  50DF               	movf	indf2,w,c
  3325  002186  6E03               	movwf	(??_SENO_GENERAR_3+2)& (0+255),c
  3326  002188  507B               	movf	3963,w,c	;volatile
  3327  00218A  1803               	xorwf	??_SENO_GENERAR_3+2,w,c
  3328  00218C  0BE0               	andlw	-32
  3329  00218E  1803               	xorwf	??_SENO_GENERAR_3+2,w,c
  3330  002190  6E7B               	movwf	3963,c	;volatile
  3331                           
  3332                           ; BSR set to: 0
  3333                           ;SENO.c: 58: _delay((unsigned long)((1000)*(4000000/4000000.0)));
  3334  002192  0EFA               	movlw	250
  3335  002194                     u3117:
  3336  002194  F000               	nop	
  3337  002196  2EE8               	decfsz	wreg,f,c
  3338  002198  D7FD               	goto	u3117
  3339  00219A  0100               	movlb	0	; () banked
  3340  00219C  4BC4               	infsnz	SENO_GENERAR_3@i& (0+255),f,b
  3341  00219E  2BC5               	incf	(SENO_GENERAR_3@i+1)& (0+255),f,b
  3342  0021A0  D7D9               	goto	L5
  3343  0021A2                     __end_of_SENO_GENERAR_3:
  3344                           	opt stack 0
  3345                           tblptru	equ	0xFF8
  3346                           tblptrh	equ	0xFF7
  3347                           tblptrl	equ	0xFF6
  3348                           tablat	equ	0xFF5
  3349                           prodh	equ	0xFF4
  3350                           prodl	equ	0xFF3
  3351                           postinc0	equ	0xFEE
  3352                           wreg	equ	0xFE8
  3353                           postinc1	equ	0xFE6
  3354                           postdec1	equ	0xFE5
  3355                           fsr1l	equ	0xFE1
  3356                           indf2	equ	0xFDF
  3357                           postinc2	equ	0xFDE
  3358                           fsr2h	equ	0xFDA
  3359                           fsr2l	equ	0xFD9
  3360                           status	equ	0xFD8
  3361                           
  3362 ;; *************** function _SENO_GENERAR_2 *****************
  3363 ;; Defined at:
  3364 ;;		line 29 in file "SENO.c"
  3365 ;; Parameters:    Size  Location     Type
  3366 ;;		None
  3367 ;; Auto vars:     Size  Location     Type
  3368 ;;  valoresSeno    50    3[COMRAM] int [25]
  3369 ;;  i               2   53[COMRAM] int 
  3370 ;;  key             1    0        unsigned char 
  3371 ;; Return value:  Size  Location     Type
  3372 ;;		None               void
  3373 ;; Registers used:
  3374 ;;		wreg, fsr1l, fsr1h, fsr2l, fsr2h, status,2, status,0
  3375 ;; Tracked objects:
  3376 ;;		On entry : 0/0
  3377 ;;		On exit  : 0/0
  3378 ;;		Unchanged: 0/0
  3379 ;; Data sizes:     COMRAM   BANK0   BANK1   BANK2   BANK3   BANK4   BANK5   BANK6   BANK7
  3380 ;;      Params:         0       0       0       0       0       0       0       0       0
  3381 ;;      Locals:        52       0       0       0       0       0       0       0       0
  3382 ;;      Temps:          3       0       0       0       0       0       0       0       0
  3383 ;;      Totals:        55       0       0       0       0       0       0       0       0
  3384 ;;Total ram usage:       55 bytes
  3385 ;; Hardware stack levels used:    1
  3386 ;; This function calls:
  3387 ;;		Nothing
  3388 ;; This function is called by:
  3389 ;;		_main
  3390 ;; This function uses a non-reentrant model
  3391 ;;
  3392                           
  3393                           	psect	text9
  3394  0022DA                     __ptext9:
  3395                           	opt stack 0
  3396  0022DA                     _SENO_GENERAR_2:
  3397                           	opt stack 30
  3398                           
  3399                           ;SENO.c: 31: OSCCON=0b01010111;
  3400                           
  3401                           ; BSR set to: 0
  3402                           ;incstack = 0
  3403  0022DA  0E57               	movlw	87
  3404  0022DC  6ED3               	movwf	4051,c	;volatile
  3405                           
  3406                           ;SENO.c: 32: char key;
  3407                           ;SENO.c: 33: int i;
  3408                           ;SENO.c: 34: int valoresSeno [25]= {16,19,23,26,29,30,31,31,30,27,25,21,17,14,10,6,4,1,0
      +                          ,0,1,2,5,8,12};
  3409  0022DE  EE21  F064         	lfsr	2,SENO_GENERAR_2@F7361
  3410  0022E2  EE10  F004         	lfsr	1,SENO_GENERAR_2@valoresSeno
  3411  0022E6  0E32               	movlw	50
  3412  0022E8                     u2521:
  3413  0022E8  CFDE FFE6          	movff	postinc2,postinc1
  3414  0022EC  2EE8               	decfsz	wreg,f,c
  3415  0022EE  D7FC               	goto	u2521
  3416                           
  3417                           ;SENO.c: 35: VREFCON1=0b10100000;
  3418  0022F0  0EA0               	movlw	160
  3419  0022F2  6E7C               	movwf	3964,c	;volatile
  3420                           
  3421                           ;SENO.c: 38: for(i=0;i<25;i++){
  3422                           
  3423                           ;SENO.c: 37: while(1){
  3424  0022F4  0E00               	movlw	0
  3425  0022F6  6E37               	movwf	SENO_GENERAR_2@i+1,c
  3426  0022F8  0E00               	movlw	0
  3427  0022FA  6E36               	movwf	SENO_GENERAR_2@i,c
  3428  0022FC  5037               	movf	SENO_GENERAR_2@i+1,w,c
  3429  0022FE  0A80               	xorlw	128
  3430  002300  0F80               	addlw	-128
  3431  002302  0E19               	movlw	25
  3432  002304  B4D8               	btfsc	status,2,c
  3433  002306  5C36               	subwf	SENO_GENERAR_2@i,w,c
  3434  002308  B0D8               	btfsc	status,0,c
  3435  00230A  0012               	return	
  3436                           
  3437                           ;SENO.c: 39: VREFCON2bits.DACR=valoresSeno [i];
  3438  00230C  0E04               	movlw	low SENO_GENERAR_2@valoresSeno
  3439  00230E  6E01               	movwf	??_SENO_GENERAR_2& (0+255),c
  3440  002310  0E00               	movlw	high SENO_GENERAR_2@valoresSeno
  3441  002312  6E02               	movwf	(??_SENO_GENERAR_2+1)& (0+255),c
  3442  002314  90D8               	bcf	status,0,c
  3443  002316  3436               	rlcf	SENO_GENERAR_2@i,w,c
  3444  002318  6ED9               	movwf	fsr2l,c
  3445  00231A  3437               	rlcf	SENO_GENERAR_2@i+1,w,c
  3446  00231C  6EDA               	movwf	fsr2h,c
  3447  00231E  5001               	movf	??_SENO_GENERAR_2,w,c
  3448  002320  26D9               	addwf	fsr2l,f,c
  3449  002322  5002               	movf	??_SENO_GENERAR_2+1,w,c
  3450  002324  22DA               	addwfc	fsr2h,f,c
  3451  002326  50DF               	movf	indf2,w,c
  3452  002328  6E03               	movwf	(??_SENO_GENERAR_2+2)& (0+255),c
  3453  00232A  507B               	movf	3963,w,c	;volatile
  3454  00232C  1803               	xorwf	??_SENO_GENERAR_2+2,w,c
  3455  00232E  0BE0               	andlw	-32
  3456  002330  1803               	xorwf	??_SENO_GENERAR_2+2,w,c
  3457  002332  6E7B               	movwf	3963,c	;volatile
  3458                           
  3459                           ;SENO.c: 40: _delay((unsigned long)((1000)*(4000000/4000000.0)));
  3460  002334  0EFA               	movlw	250
  3461  002336                     u3127:
  3462  002336  F000               	nop	
  3463  002338  2EE8               	decfsz	wreg,f,c
  3464  00233A  D7FD               	goto	u3127
  3465  00233C  4A36               	infsnz	SENO_GENERAR_2@i,f,c
  3466  00233E  2A37               	incf	SENO_GENERAR_2@i+1,f,c
  3467  002340  D7DD               	goto	L6
  3468  002342                     __end_of_SENO_GENERAR_2:
  3469                           	opt stack 0
  3470                           tblptru	equ	0xFF8
  3471                           tblptrh	equ	0xFF7
  3472                           tblptrl	equ	0xFF6
  3473                           tablat	equ	0xFF5
  3474                           prodh	equ	0xFF4
  3475                           prodl	equ	0xFF3
  3476                           postinc0	equ	0xFEE
  3477                           wreg	equ	0xFE8
  3478                           postinc1	equ	0xFE6
  3479                           postdec1	equ	0xFE5
  3480                           fsr1l	equ	0xFE1
  3481                           indf2	equ	0xFDF
  3482                           postinc2	equ	0xFDE
  3483                           fsr2h	equ	0xFDA
  3484                           fsr2l	equ	0xFD9
  3485                           status	equ	0xFD8
  3486                           
  3487 ;; *************** function _SENO_GENERAR_1 *****************
  3488 ;; Defined at:
  3489 ;;		line 8 in file "SENO.c"
  3490 ;; Parameters:    Size  Location     Type
  3491 ;;		None
  3492 ;; Auto vars:     Size  Location     Type
  3493 ;;  valoresSeno    20    3[COMRAM] int [10]
  3494 ;;  i               2   23[COMRAM] int 
  3495 ;;  key             1    0        unsigned char 
  3496 ;; Return value:  Size  Location     Type
  3497 ;;		None               void
  3498 ;; Registers used:
  3499 ;;		wreg, fsr1l, fsr1h, fsr2l, fsr2h, status,2, status,0
  3500 ;; Tracked objects:
  3501 ;;		On entry : 0/0
  3502 ;;		On exit  : 0/0
  3503 ;;		Unchanged: 0/0
  3504 ;; Data sizes:     COMRAM   BANK0   BANK1   BANK2   BANK3   BANK4   BANK5   BANK6   BANK7
  3505 ;;      Params:         0       0       0       0       0       0       0       0       0
  3506 ;;      Locals:        22       0       0       0       0       0       0       0       0
  3507 ;;      Temps:          3       0       0       0       0       0       0       0       0
  3508 ;;      Totals:        25       0       0       0       0       0       0       0       0
  3509 ;;Total ram usage:       25 bytes
  3510 ;; Hardware stack levels used:    1
  3511 ;; This function calls:
  3512 ;;		Nothing
  3513 ;; This function is called by:
  3514 ;;		_main
  3515 ;; This function uses a non-reentrant model
  3516 ;;
  3517                           
  3518                           	psect	text10
  3519  002342                     __ptext10:
  3520                           	opt stack 0
  3521  002342                     _SENO_GENERAR_1:
  3522                           	opt stack 30
  3523                           
  3524                           ;SENO.c: 10: OSCCON=0b01010111;
  3525                           
  3526                           ;incstack = 0
  3527  002342  0E57               	movlw	87
  3528  002344  6ED3               	movwf	4051,c	;volatile
  3529                           
  3530                           ;SENO.c: 11: char key;
  3531                           ;SENO.c: 12: int i;
  3532                           ;SENO.c: 13: int valoresSeno [10]= {16,25,30,30,25,16,6,1,1,6};
  3533  002346  EE20  F0E4         	lfsr	2,SENO_GENERAR_1@F7356
  3534  00234A  EE10  F004         	lfsr	1,SENO_GENERAR_1@valoresSeno
  3535  00234E  0E14               	movlw	20
  3536  002350                     u2491:
  3537  002350  CFDE FFE6          	movff	postinc2,postinc1
  3538  002354  2EE8               	decfsz	wreg,f,c
  3539  002356  D7FC               	goto	u2491
  3540                           
  3541                           ;SENO.c: 14: VREFCON1=0b10100000;
  3542  002358  0EA0               	movlw	160
  3543  00235A  6E7C               	movwf	3964,c	;volatile
  3544                           
  3545                           ;SENO.c: 17: for(i=0;i<10;i++){
  3546                           
  3547                           ;SENO.c: 16: while(1){
  3548  00235C  0E00               	movlw	0
  3549  00235E  6E19               	movwf	SENO_GENERAR_1@i+1,c
  3550  002360  0E00               	movlw	0
  3551  002362  6E18               	movwf	SENO_GENERAR_1@i,c
  3552  002364  5019               	movf	SENO_GENERAR_1@i+1,w,c
  3553  002366  0A80               	xorlw	128
  3554  002368  0F80               	addlw	-128
  3555  00236A  0E0A               	movlw	10
  3556  00236C  B4D8               	btfsc	status,2,c
  3557  00236E  5C18               	subwf	SENO_GENERAR_1@i,w,c
  3558  002370  B0D8               	btfsc	status,0,c
  3559  002372  0012               	return	
  3560                           
  3561                           ;SENO.c: 18: VREFCON2bits.DACR=valoresSeno [i];
  3562  002374  0E04               	movlw	low SENO_GENERAR_1@valoresSeno
  3563  002376  6E01               	movwf	??_SENO_GENERAR_1& (0+255),c
  3564  002378  0E00               	movlw	high SENO_GENERAR_1@valoresSeno
  3565  00237A  6E02               	movwf	(??_SENO_GENERAR_1+1)& (0+255),c
  3566  00237C  90D8               	bcf	status,0,c
  3567  00237E  3418               	rlcf	SENO_GENERAR_1@i,w,c
  3568  002380  6ED9               	movwf	fsr2l,c
  3569  002382  3419               	rlcf	SENO_GENERAR_1@i+1,w,c
  3570  002384  6EDA               	movwf	fsr2h,c
  3571  002386  5001               	movf	??_SENO_GENERAR_1,w,c
  3572  002388  26D9               	addwf	fsr2l,f,c
  3573  00238A  5002               	movf	??_SENO_GENERAR_1+1,w,c
  3574  00238C  22DA               	addwfc	fsr2h,f,c
  3575  00238E  50DF               	movf	indf2,w,c
  3576  002390  6E03               	movwf	(??_SENO_GENERAR_1+2)& (0+255),c
  3577  002392  507B               	movf	3963,w,c	;volatile
  3578  002394  1803               	xorwf	??_SENO_GENERAR_1+2,w,c
  3579  002396  0BE0               	andlw	-32
  3580  002398  1803               	xorwf	??_SENO_GENERAR_1+2,w,c
  3581  00239A  6E7B               	movwf	3963,c	;volatile
  3582                           
  3583                           ;SENO.c: 19: _delay((unsigned long)((1000)*(4000000/4000000.0)));
  3584  00239C  0EFA               	movlw	250
  3585  00239E                     u3137:
  3586  00239E  F000               	nop	
  3587  0023A0  2EE8               	decfsz	wreg,f,c
  3588  0023A2  D7FD               	goto	u3137
  3589  0023A4  4A18               	infsnz	SENO_GENERAR_1@i,f,c
  3590  0023A6  2A19               	incf	SENO_GENERAR_1@i+1,f,c
  3591  0023A8  D7DD               	goto	L7
  3592  0023AA                     __end_of_SENO_GENERAR_1:
  3593                           	opt stack 0
  3594                           tblptru	equ	0xFF8
  3595                           tblptrh	equ	0xFF7
  3596                           tblptrl	equ	0xFF6
  3597                           tablat	equ	0xFF5
  3598                           prodh	equ	0xFF4
  3599                           prodl	equ	0xFF3
  3600                           postinc0	equ	0xFEE
  3601                           wreg	equ	0xFE8
  3602                           postinc1	equ	0xFE6
  3603                           postdec1	equ	0xFE5
  3604                           fsr1l	equ	0xFE1
  3605                           indf2	equ	0xFDF
  3606                           postinc2	equ	0xFDE
  3607                           fsr2h	equ	0xFDA
  3608                           fsr2l	equ	0xFD9
  3609                           status	equ	0xFD8
  3610                           
  3611 ;; *************** function _PWM_generar *****************
  3612 ;; Defined at:
  3613 ;;		line 10 in file "PWM.c"
  3614 ;; Parameters:    Size  Location     Type
  3615 ;;  duty            2   13[COMRAM] unsigned int 
  3616 ;;  fpwm            2   15[COMRAM] unsigned int 
  3617 ;; Auto vars:     Size  Location     Type
  3618 ;;  AuxCCPR2L       4   29[COMRAM] unsigned long 
  3619 ;;  PR2cal          4   25[COMRAM] unsigned long 
  3620 ;;  AuxCCP2CON      2   23[COMRAM] unsigned int 
  3621 ;;  prescalador     2   21[COMRAM] unsigned int 
  3622 ;; Return value:  Size  Location     Type
  3623 ;;		None               void
  3624 ;; Registers used:
  3625 ;;		wreg, status,2, status,0, cstack
  3626 ;; Tracked objects:
  3627 ;;		On entry : 0/0
  3628 ;;		On exit  : 0/0
  3629 ;;		Unchanged: 0/0
  3630 ;; Data sizes:     COMRAM   BANK0   BANK1   BANK2   BANK3   BANK4   BANK5   BANK6   BANK7
  3631 ;;      Params:         4       0       0       0       0       0       0       0       0
  3632 ;;      Locals:        12       0       0       0       0       0       0       0       0
  3633 ;;      Temps:          4       0       0       0       0       0       0       0       0
  3634 ;;      Totals:        20       0       0       0       0       0       0       0       0
  3635 ;;Total ram usage:       20 bytes
  3636 ;; Hardware stack levels used:    1
  3637 ;; Hardware stack levels required when called:    1
  3638 ;; This function calls:
  3639 ;;		___lldiv
  3640 ;;		___lmul
  3641 ;; This function is called by:
  3642 ;;		_main
  3643 ;;		_Prueba2
  3644 ;; This function uses a non-reentrant model
  3645 ;;
  3646                           
  3647                           	psect	text11
  3648  0010F2                     __ptext11:
  3649                           	opt stack 0
  3650  0010F2                     _PWM_generar:
  3651                           	opt stack 29
  3652                           
  3653                           ;PWM.c: 17: TRISCbits.RC1=0;
  3654                           
  3655                           ;incstack = 0
  3656  0010F2  9294               	bcf	3988,1,c	;volatile
  3657                           
  3658                           ;PWM.c: 18: ANSELC=0;
  3659  0010F4  0E00               	movlw	0
  3660  0010F6  010F               	movlb	15	; () banked
  3661  0010F8  6F5D               	movwf	93,b	;volatile
  3662                           
  3663                           ;PWM.c: 19: unsigned int prescalador=1;
  3664  0010FA  0E00               	movlw	0
  3665  0010FC  6E17               	movwf	PWM_generar@prescalador+1,c
  3666  0010FE  0E01               	movlw	1
  3667  001100  6E16               	movwf	PWM_generar@prescalador,c
  3668                           
  3669                           ;PWM.c: 20: unsigned long PR2cal=4000000;
  3670  001102  0E00               	movlw	0
  3671  001104  6E1A               	movwf	PWM_generar@PR2cal,c
  3672  001106  0E09               	movlw	9
  3673  001108  6E1B               	movwf	PWM_generar@PR2cal+1,c
  3674  00110A  0E3D               	movlw	61
  3675  00110C  6E1C               	movwf	PWM_generar@PR2cal+2,c
  3676  00110E  0E00               	movlw	0
  3677  001110  6E1D               	movwf	PWM_generar@PR2cal+3,c
  3678                           
  3679                           ; BSR set to: 15
  3680                           ;PWM.c: 21: PR2cal=PR2cal/fpwm;
  3681  001112  C01A  F001         	movff	PWM_generar@PR2cal,___lldiv@dividend
  3682  001116  C01B  F002         	movff	PWM_generar@PR2cal+1,___lldiv@dividend+1
  3683  00111A  C01C  F003         	movff	PWM_generar@PR2cal+2,___lldiv@dividend+2
  3684  00111E  C01D  F004         	movff	PWM_generar@PR2cal+3,___lldiv@dividend+3
  3685  001122  C010  F005         	movff	PWM_generar@fpwm,___lldiv@divisor
  3686  001126  C011  F006         	movff	PWM_generar@fpwm+1,___lldiv@divisor+1
  3687  00112A  6A07               	clrf	___lldiv@divisor+2,c
  3688  00112C  6A08               	clrf	___lldiv@divisor+3,c
  3689  00112E  EC19  F010         	call	___lldiv	;wreg free
  3690  001132  C001  F01A         	movff	?___lldiv,PWM_generar@PR2cal
  3691  001136  C002  F01B         	movff	?___lldiv+1,PWM_generar@PR2cal+1
  3692  00113A  C003  F01C         	movff	?___lldiv+2,PWM_generar@PR2cal+2
  3693  00113E  C004  F01D         	movff	?___lldiv+3,PWM_generar@PR2cal+3
  3694                           
  3695                           ;PWM.c: 22: PR2cal=PR2cal/4;
  3696  001142  C01A  F012         	movff	PWM_generar@PR2cal,??_PWM_generar
  3697  001146  C01B  F013         	movff	PWM_generar@PR2cal+1,??_PWM_generar+1
  3698  00114A  C01C  F014         	movff	PWM_generar@PR2cal+2,??_PWM_generar+2
  3699  00114E  C01D  F015         	movff	PWM_generar@PR2cal+3,??_PWM_generar+3
  3700  001152  0E03               	movlw	3
  3701  001154  D005               	goto	u2350
  3702  001156                     u2355:
  3703  001156  90D8               	bcf	status,0,c
  3704  001158  3215               	rrcf	??_PWM_generar+3,f,c
  3705  00115A  3214               	rrcf	??_PWM_generar+2,f,c
  3706  00115C  3213               	rrcf	??_PWM_generar+1,f,c
  3707  00115E  3212               	rrcf	??_PWM_generar,f,c
  3708  001160                     u2350:
  3709  001160  2EE8               	decfsz	wreg,f,c
  3710  001162  D7F9               	goto	u2355
  3711  001164  C012  F01A         	movff	??_PWM_generar,PWM_generar@PR2cal
  3712  001168  C013  F01B         	movff	??_PWM_generar+1,PWM_generar@PR2cal+1
  3713  00116C  C014  F01C         	movff	??_PWM_generar+2,PWM_generar@PR2cal+2
  3714  001170  C015  F01D         	movff	??_PWM_generar+3,PWM_generar@PR2cal+3
  3715                           
  3716                           ;PWM.c: 23: T2CON=0b00000000;
  3717  001174  0E00               	movlw	0
  3718  001176  6EBA               	movwf	4026,c	;volatile
  3719                           
  3720                           ;PWM.c: 24: while(PR2cal>256){
  3721  001178  D028               	goto	l2908
  3722  00117A                     l2904:
  3723                           
  3724                           ;PWM.c: 25: prescalador=prescalador*4;
  3725  00117A  C016  F012         	movff	PWM_generar@prescalador,??_PWM_generar
  3726  00117E  C017  F013         	movff	PWM_generar@prescalador+1,??_PWM_generar+1
  3727  001182  90D8               	bcf	status,0,c
  3728  001184  3612               	rlcf	??_PWM_generar,f,c
  3729  001186  3613               	rlcf	??_PWM_generar+1,f,c
  3730  001188  90D8               	bcf	status,0,c
  3731  00118A  3612               	rlcf	??_PWM_generar,f,c
  3732  00118C  3613               	rlcf	??_PWM_generar+1,f,c
  3733  00118E  C012  F016         	movff	??_PWM_generar,PWM_generar@prescalador
  3734  001192  C013  F017         	movff	??_PWM_generar+1,PWM_generar@prescalador+1
  3735                           
  3736                           ;PWM.c: 26: T2CON++;
  3737  001196  2ABA               	incf	4026,f,c	;volatile
  3738                           
  3739                           ;PWM.c: 27: PR2cal=PR2cal/4;
  3740  001198  C01A  F012         	movff	PWM_generar@PR2cal,??_PWM_generar
  3741  00119C  C01B  F013         	movff	PWM_generar@PR2cal+1,??_PWM_generar+1
  3742  0011A0  C01C  F014         	movff	PWM_generar@PR2cal+2,??_PWM_generar+2
  3743  0011A4  C01D  F015         	movff	PWM_generar@PR2cal+3,??_PWM_generar+3
  3744  0011A8  0E03               	movlw	3
  3745  0011AA  D005               	goto	u2360
  3746  0011AC                     u2365:
  3747  0011AC  90D8               	bcf	status,0,c
  3748  0011AE  3215               	rrcf	??_PWM_generar+3,f,c
  3749  0011B0  3214               	rrcf	??_PWM_generar+2,f,c
  3750  0011B2  3213               	rrcf	??_PWM_generar+1,f,c
  3751  0011B4  3212               	rrcf	??_PWM_generar,f,c
  3752  0011B6                     u2360:
  3753  0011B6  2EE8               	decfsz	wreg,f,c
  3754  0011B8  D7F9               	goto	u2365
  3755  0011BA  C012  F01A         	movff	??_PWM_generar,PWM_generar@PR2cal
  3756  0011BE  C013  F01B         	movff	??_PWM_generar+1,PWM_generar@PR2cal+1
  3757  0011C2  C014  F01C         	movff	??_PWM_generar+2,PWM_generar@PR2cal+2
  3758  0011C6  C015  F01D         	movff	??_PWM_generar+3,PWM_generar@PR2cal+3
  3759  0011CA                     l2908:
  3760  0011CA  0E01               	movlw	1
  3761  0011CC  6E12               	movwf	??_PWM_generar& (0+255),c
  3762  0011CE  0E01               	movlw	1
  3763  0011D0  6E13               	movwf	(??_PWM_generar+1)& (0+255),c
  3764  0011D2  0E00               	movlw	0
  3765  0011D4  6E14               	movwf	(??_PWM_generar+2)& (0+255),c
  3766  0011D6  0E00               	movlw	0
  3767  0011D8  6E15               	movwf	(??_PWM_generar+3)& (0+255),c
  3768  0011DA  5012               	movf	??_PWM_generar,w,c
  3769  0011DC  5C1A               	subwf	PWM_generar@PR2cal,w,c
  3770  0011DE  5013               	movf	??_PWM_generar+1,w,c
  3771  0011E0  581B               	subwfb	PWM_generar@PR2cal+1,w,c
  3772  0011E2  5014               	movf	??_PWM_generar+2,w,c
  3773  0011E4  581C               	subwfb	PWM_generar@PR2cal+2,w,c
  3774  0011E6  5015               	movf	??_PWM_generar+3,w,c
  3775  0011E8  581D               	subwfb	PWM_generar@PR2cal+3,w,c
  3776  0011EA  B0D8               	btfsc	status,0,c
  3777  0011EC  D7C6               	goto	l2904
  3778                           
  3779                           ;PWM.c: 28: }
  3780                           ;PWM.c: 29: PR2cal--;
  3781  0011EE  061A               	decf	PWM_generar@PR2cal,f,c
  3782  0011F0  0E00               	movlw	0
  3783  0011F2  5A1B               	subwfb	PWM_generar@PR2cal+1,f,c
  3784  0011F4  5A1C               	subwfb	PWM_generar@PR2cal+2,f,c
  3785  0011F6  5A1D               	subwfb	PWM_generar@PR2cal+3,f,c
  3786                           
  3787                           ;PWM.c: 30: PR2=PR2cal;
  3788  0011F8  C01A  FFBB         	movff	PWM_generar@PR2cal,4027	;volatile
  3789                           
  3790                           ;PWM.c: 37: unsigned long AuxCCPR2L=PR2cal;
  3791  0011FC  C01A  F01E         	movff	PWM_generar@PR2cal,PWM_generar@AuxCCPR2L
  3792  001200  C01B  F01F         	movff	PWM_generar@PR2cal+1,PWM_generar@AuxCCPR2L+1
  3793  001204  C01C  F020         	movff	PWM_generar@PR2cal+2,PWM_generar@AuxCCPR2L+2
  3794  001208  C01D  F021         	movff	PWM_generar@PR2cal+3,PWM_generar@AuxCCPR2L+3
  3795                           
  3796                           ;PWM.c: 38: AuxCCPR2L++;
  3797  00120C  0E01               	movlw	1
  3798  00120E  261E               	addwf	PWM_generar@AuxCCPR2L,f,c
  3799  001210  0E00               	movlw	0
  3800  001212  221F               	addwfc	PWM_generar@AuxCCPR2L+1,f,c
  3801  001214  2220               	addwfc	PWM_generar@AuxCCPR2L+2,f,c
  3802  001216  2221               	addwfc	PWM_generar@AuxCCPR2L+3,f,c
  3803                           
  3804                           ;PWM.c: 39: AuxCCPR2L=AuxCCPR2L*duty;
  3805  001218  C00E  F001         	movff	PWM_generar@duty,___lmul@multiplier
  3806  00121C  C00F  F002         	movff	PWM_generar@duty+1,___lmul@multiplier+1
  3807  001220  6A03               	clrf	___lmul@multiplier+2,c
  3808  001222  6A04               	clrf	___lmul@multiplier+3,c
  3809  001224  C01E  F005         	movff	PWM_generar@AuxCCPR2L,___lmul@multiplicand
  3810  001228  C01F  F006         	movff	PWM_generar@AuxCCPR2L+1,___lmul@multiplicand+1
  3811  00122C  C020  F007         	movff	PWM_generar@AuxCCPR2L+2,___lmul@multiplicand+2
  3812  001230  C021  F008         	movff	PWM_generar@AuxCCPR2L+3,___lmul@multiplicand+3
  3813  001234  EC06  F012         	call	___lmul	;wreg free
  3814  001238  C001  F01E         	movff	?___lmul,PWM_generar@AuxCCPR2L
  3815  00123C  C002  F01F         	movff	?___lmul+1,PWM_generar@AuxCCPR2L+1
  3816  001240  C003  F020         	movff	?___lmul+2,PWM_generar@AuxCCPR2L+2
  3817  001244  C004  F021         	movff	?___lmul+3,PWM_generar@AuxCCPR2L+3
  3818                           
  3819                           ;PWM.c: 40: AuxCCPR2L=AuxCCPR2L*4;
  3820  001248  C01E  F012         	movff	PWM_generar@AuxCCPR2L,??_PWM_generar
  3821  00124C  C01F  F013         	movff	PWM_generar@AuxCCPR2L+1,??_PWM_generar+1
  3822  001250  C020  F014         	movff	PWM_generar@AuxCCPR2L+2,??_PWM_generar+2
  3823  001254  C021  F015         	movff	PWM_generar@AuxCCPR2L+3,??_PWM_generar+3
  3824  001258  0E02               	movlw	2
  3825  00125A                     u2385:
  3826  00125A  90D8               	bcf	status,0,c
  3827  00125C  3612               	rlcf	??_PWM_generar,f,c
  3828  00125E  3613               	rlcf	??_PWM_generar+1,f,c
  3829  001260  3614               	rlcf	??_PWM_generar+2,f,c
  3830  001262  3615               	rlcf	??_PWM_generar+3,f,c
  3831  001264  2EE8               	decfsz	wreg,f,c
  3832  001266  D7F9               	goto	u2385
  3833  001268  C012  F01E         	movff	??_PWM_generar,PWM_generar@AuxCCPR2L
  3834  00126C  C013  F01F         	movff	??_PWM_generar+1,PWM_generar@AuxCCPR2L+1
  3835  001270  C014  F020         	movff	??_PWM_generar+2,PWM_generar@AuxCCPR2L+2
  3836  001274  C015  F021         	movff	??_PWM_generar+3,PWM_generar@AuxCCPR2L+3
  3837                           
  3838                           ;PWM.c: 41: AuxCCPR2L=AuxCCPR2L/100;
  3839  001278  C01E  F001         	movff	PWM_generar@AuxCCPR2L,___lldiv@dividend
  3840  00127C  C01F  F002         	movff	PWM_generar@AuxCCPR2L+1,___lldiv@dividend+1
  3841  001280  C020  F003         	movff	PWM_generar@AuxCCPR2L+2,___lldiv@dividend+2
  3842  001284  C021  F004         	movff	PWM_generar@AuxCCPR2L+3,___lldiv@dividend+3
  3843  001288  0E64               	movlw	100
  3844  00128A  6E05               	movwf	___lldiv@divisor,c
  3845  00128C  0E00               	movlw	0
  3846  00128E  6E06               	movwf	___lldiv@divisor+1,c
  3847  001290  0E00               	movlw	0
  3848  001292  6E07               	movwf	___lldiv@divisor+2,c
  3849  001294  0E00               	movlw	0
  3850  001296  6E08               	movwf	___lldiv@divisor+3,c
  3851  001298  EC19  F010         	call	___lldiv	;wreg free
  3852  00129C  C001  F01E         	movff	?___lldiv,PWM_generar@AuxCCPR2L
  3853  0012A0  C002  F01F         	movff	?___lldiv+1,PWM_generar@AuxCCPR2L+1
  3854  0012A4  C003  F020         	movff	?___lldiv+2,PWM_generar@AuxCCPR2L+2
  3855  0012A8  C004  F021         	movff	?___lldiv+3,PWM_generar@AuxCCPR2L+3
  3856                           
  3857                           ;PWM.c: 42: unsigned int AuxCCP2CON= AuxCCPR2L;
  3858  0012AC  C01E  F018         	movff	PWM_generar@AuxCCPR2L,PWM_generar@AuxCCP2CON
  3859  0012B0  C01F  F019         	movff	PWM_generar@AuxCCPR2L+1,PWM_generar@AuxCCP2CON+1
  3860                           
  3861                           ;PWM.c: 43: AuxCCP2CON= AuxCCP2CON & 0b00000011 ;
  3862  0012B4  0E03               	movlw	3
  3863  0012B6  1418               	andwf	PWM_generar@AuxCCP2CON,w,c
  3864  0012B8  6E18               	movwf	PWM_generar@AuxCCP2CON,c
  3865  0012BA  6A19               	clrf	PWM_generar@AuxCCP2CON+1,c
  3866                           
  3867                           ;PWM.c: 44: AuxCCP2CON= AuxCCP2CON*16;
  3868  0012BC  C018  F012         	movff	PWM_generar@AuxCCP2CON,??_PWM_generar
  3869  0012C0  C019  F013         	movff	PWM_generar@AuxCCP2CON+1,??_PWM_generar+1
  3870  0012C4  3A12               	swapf	??_PWM_generar,f,c
  3871  0012C6  3A13               	swapf	??_PWM_generar+1,f,c
  3872  0012C8  0EF0               	movlw	240
  3873  0012CA  1613               	andwf	??_PWM_generar+1,f,c
  3874  0012CC  5012               	movf	??_PWM_generar,w,c
  3875  0012CE  0B0F               	andlw	15
  3876  0012D0  1213               	iorwf	??_PWM_generar+1,f,c
  3877  0012D2  0EF0               	movlw	240
  3878  0012D4  1612               	andwf	??_PWM_generar,f,c
  3879  0012D6  C012  F018         	movff	??_PWM_generar,PWM_generar@AuxCCP2CON
  3880  0012DA  C013  F019         	movff	??_PWM_generar+1,PWM_generar@AuxCCP2CON+1
  3881                           
  3882                           ;PWM.c: 45: CCP2CON= 0b00001100;
  3883  0012DE  0E0C               	movlw	12
  3884  0012E0  6E97               	movwf	3991,c	;volatile
  3885                           
  3886                           ;PWM.c: 46: CCP2CON= CCP2CON|AuxCCP2CON;
  3887  0012E2  5097               	movf	3991,w,c
  3888  0012E4  1018               	iorwf	PWM_generar@AuxCCP2CON,w,c
  3889  0012E6  6E97               	movwf	3991,c	;volatile
  3890                           
  3891                           ;PWM.c: 47: AuxCCPR2L=AuxCCPR2L/4;
  3892  0012E8  C01E  F012         	movff	PWM_generar@AuxCCPR2L,??_PWM_generar
  3893  0012EC  C01F  F013         	movff	PWM_generar@AuxCCPR2L+1,??_PWM_generar+1
  3894  0012F0  C020  F014         	movff	PWM_generar@AuxCCPR2L+2,??_PWM_generar+2
  3895  0012F4  C021  F015         	movff	PWM_generar@AuxCCPR2L+3,??_PWM_generar+3
  3896  0012F8  0E03               	movlw	3
  3897  0012FA  D005               	goto	u2390
  3898  0012FC                     u2395:
  3899  0012FC  90D8               	bcf	status,0,c
  3900  0012FE  3215               	rrcf	??_PWM_generar+3,f,c
  3901  001300  3214               	rrcf	??_PWM_generar+2,f,c
  3902  001302  3213               	rrcf	??_PWM_generar+1,f,c
  3903  001304  3212               	rrcf	??_PWM_generar,f,c
  3904  001306                     u2390:
  3905  001306  2EE8               	decfsz	wreg,f,c
  3906  001308  D7F9               	goto	u2395
  3907  00130A  C012  F01E         	movff	??_PWM_generar,PWM_generar@AuxCCPR2L
  3908  00130E  C013  F01F         	movff	??_PWM_generar+1,PWM_generar@AuxCCPR2L+1
  3909  001312  C014  F020         	movff	??_PWM_generar+2,PWM_generar@AuxCCPR2L+2
  3910  001316  C015  F021         	movff	??_PWM_generar+3,PWM_generar@AuxCCPR2L+3
  3911                           
  3912                           ;PWM.c: 48: CCPR2L=AuxCCPR2L;
  3913  00131A  C01E  FF90         	movff	PWM_generar@AuxCCPR2L,3984	;volatile
  3914                           
  3915                           ;PWM.c: 49: T2CONbits.TMR2ON=1;
  3916  00131E  84BA               	bsf	4026,2,c	;volatile
  3917                           
  3918                           ;PWM.c: 50: TMR2=0;
  3919  001320  0E00               	movlw	0
  3920  001322  6EBC               	movwf	4028,c	;volatile
  3921  001324  0012               	return	
  3922  001326                     __end_of_PWM_generar:
  3923                           	opt stack 0
  3924                           tblptru	equ	0xFF8
  3925                           tblptrh	equ	0xFF7
  3926                           tblptrl	equ	0xFF6
  3927                           tablat	equ	0xFF5
  3928                           prodh	equ	0xFF4
  3929                           prodl	equ	0xFF3
  3930                           postinc0	equ	0xFEE
  3931                           wreg	equ	0xFE8
  3932                           postinc1	equ	0xFE6
  3933                           postdec1	equ	0xFE5
  3934                           fsr1l	equ	0xFE1
  3935                           indf2	equ	0xFDF
  3936                           postinc2	equ	0xFDE
  3937                           fsr2h	equ	0xFDA
  3938                           fsr2l	equ	0xFD9
  3939                           status	equ	0xFD8
  3940                           
  3941 ;; *************** function ___lldiv *****************
  3942 ;; Defined at:
  3943 ;;		line 8 in file "/opt/microchip/xc8/v1.32/sources/common/lldiv.c"
  3944 ;; Parameters:    Size  Location     Type
  3945 ;;  dividend        4    0[COMRAM] unsigned long 
  3946 ;;  divisor         4    4[COMRAM] unsigned long 
  3947 ;; Auto vars:     Size  Location     Type
  3948 ;;  quotient        4    8[COMRAM] unsigned long 
  3949 ;;  counter         1   12[COMRAM] unsigned char 
  3950 ;; Return value:  Size  Location     Type
  3951 ;;                  4    0[COMRAM] unsigned long 
  3952 ;; Registers used:
  3953 ;;		wreg, status,2, status,0
  3954 ;; Tracked objects:
  3955 ;;		On entry : 0/0
  3956 ;;		On exit  : 0/0
  3957 ;;		Unchanged: 0/0
  3958 ;; Data sizes:     COMRAM   BANK0   BANK1   BANK2   BANK3   BANK4   BANK5   BANK6   BANK7
  3959 ;;      Params:         8       0       0       0       0       0       0       0       0
  3960 ;;      Locals:         5       0       0       0       0       0       0       0       0
  3961 ;;      Temps:          0       0       0       0       0       0       0       0       0
  3962 ;;      Totals:        13       0       0       0       0       0       0       0       0
  3963 ;;Total ram usage:       13 bytes
  3964 ;; Hardware stack levels used:    1
  3965 ;; This function calls:
  3966 ;;		Nothing
  3967 ;; This function is called by:
  3968 ;;		_PWM_generar
  3969 ;; This function uses a non-reentrant model
  3970 ;;
  3971                           
  3972                           	psect	text12
  3973  002032                     __ptext12:
  3974                           	opt stack 0
  3975  002032                     ___lldiv:
  3976                           	opt stack 29
  3977                           
  3978                           ;incstack = 0
  3979  002032  0E00               	movlw	0
  3980  002034  6E09               	movwf	___lldiv@quotient,c
  3981  002036  0E00               	movlw	0
  3982  002038  6E0A               	movwf	___lldiv@quotient+1,c
  3983  00203A  0E00               	movlw	0
  3984  00203C  6E0B               	movwf	___lldiv@quotient+2,c
  3985  00203E  0E00               	movlw	0
  3986  002040  6E0C               	movwf	___lldiv@quotient+3,c
  3987  002042  5008               	movf	___lldiv@divisor+3,w,c
  3988  002044  1005               	iorwf	___lldiv@divisor,w,c
  3989  002046  1006               	iorwf	___lldiv@divisor+1,w,c
  3990  002048  1007               	iorwf	___lldiv@divisor+2,w,c
  3991  00204A  B4D8               	btfsc	status,2,c
  3992  00204C  D02A               	goto	l904
  3993  00204E  0E01               	movlw	1
  3994  002050  6E0D               	movwf	___lldiv@counter,c
  3995  002052  D006               	goto	l2762
  3996  002054                     l2760:
  3997  002054  90D8               	bcf	status,0,c
  3998  002056  3605               	rlcf	___lldiv@divisor,f,c
  3999  002058  3606               	rlcf	___lldiv@divisor+1,f,c
  4000  00205A  3607               	rlcf	___lldiv@divisor+2,f,c
  4001  00205C  3608               	rlcf	___lldiv@divisor+3,f,c
  4002  00205E  2A0D               	incf	___lldiv@counter,f,c
  4003  002060                     l2762:
  4004  002060  AE08               	btfss	___lldiv@divisor+3,7,c
  4005  002062  D7F8               	goto	l2760
  4006  002064                     l2764:
  4007  002064  90D8               	bcf	status,0,c
  4008  002066  3609               	rlcf	___lldiv@quotient,f,c
  4009  002068  360A               	rlcf	___lldiv@quotient+1,f,c
  4010  00206A  360B               	rlcf	___lldiv@quotient+2,f,c
  4011  00206C  360C               	rlcf	___lldiv@quotient+3,f,c
  4012  00206E  5005               	movf	___lldiv@divisor,w,c
  4013  002070  5C01               	subwf	___lldiv@dividend,w,c
  4014  002072  5006               	movf	___lldiv@divisor+1,w,c
  4015  002074  5802               	subwfb	___lldiv@dividend+1,w,c
  4016  002076  5007               	movf	___lldiv@divisor+2,w,c
  4017  002078  5803               	subwfb	___lldiv@dividend+2,w,c
  4018  00207A  5008               	movf	___lldiv@divisor+3,w,c
  4019  00207C  5804               	subwfb	___lldiv@dividend+3,w,c
  4020  00207E  A0D8               	btfss	status,0,c
  4021  002080  D009               	goto	l2772
  4022  002082  5005               	movf	___lldiv@divisor,w,c
  4023  002084  5E01               	subwf	___lldiv@dividend,f,c
  4024  002086  5006               	movf	___lldiv@divisor+1,w,c
  4025  002088  5A02               	subwfb	___lldiv@dividend+1,f,c
  4026  00208A  5007               	movf	___lldiv@divisor+2,w,c
  4027  00208C  5A03               	subwfb	___lldiv@dividend+2,f,c
  4028  00208E  5008               	movf	___lldiv@divisor+3,w,c
  4029  002090  5A04               	subwfb	___lldiv@dividend+3,f,c
  4030  002092  8009               	bsf	___lldiv@quotient,0,c
  4031  002094                     l2772:
  4032  002094  90D8               	bcf	status,0,c
  4033  002096  3208               	rrcf	___lldiv@divisor+3,f,c
  4034  002098  3207               	rrcf	___lldiv@divisor+2,f,c
  4035  00209A  3206               	rrcf	___lldiv@divisor+1,f,c
  4036  00209C  3205               	rrcf	___lldiv@divisor,f,c
  4037  00209E  2E0D               	decfsz	___lldiv@counter,f,c
  4038  0020A0  D7E1               	goto	l2764
  4039  0020A2                     l904:
  4040  0020A2  C009  F001         	movff	___lldiv@quotient,?___lldiv
  4041  0020A6  C00A  F002         	movff	___lldiv@quotient+1,?___lldiv+1
  4042  0020AA  C00B  F003         	movff	___lldiv@quotient+2,?___lldiv+2
  4043  0020AE  C00C  F004         	movff	___lldiv@quotient+3,?___lldiv+3
  4044  0020B2  0012               	return	
  4045  0020B4                     __end_of___lldiv:
  4046                           	opt stack 0
  4047                           tblptru	equ	0xFF8
  4048                           tblptrh	equ	0xFF7
  4049                           tblptrl	equ	0xFF6
  4050                           tablat	equ	0xFF5
  4051                           prodh	equ	0xFF4
  4052                           prodl	equ	0xFF3
  4053                           postinc0	equ	0xFEE
  4054                           wreg	equ	0xFE8
  4055                           postinc1	equ	0xFE6
  4056                           postdec1	equ	0xFE5
  4057                           fsr1l	equ	0xFE1
  4058                           indf2	equ	0xFDF
  4059                           postinc2	equ	0xFDE
  4060                           fsr2h	equ	0xFDA
  4061                           fsr2l	equ	0xFD9
  4062                           status	equ	0xFD8
  4063                           
  4064 ;; *************** function _Lcd_Out *****************
  4065 ;; Defined at:
  4066 ;;		line 115 in file "pantalla.h"
  4067 ;; Parameters:    Size  Location     Type
  4068 ;;  y               1    wreg     unsigned char 
  4069 ;;  x               1    3[COMRAM] unsigned char 
  4070 ;;  buffer          2    4[COMRAM] PTR const unsigned char 
  4071 ;;		 -> cadena(10), 
  4072 ;; Auto vars:     Size  Location     Type
  4073 ;;  y               1    6[COMRAM] unsigned char 
  4074 ;;  data            1    7[COMRAM] unsigned char 
  4075 ;; Return value:  Size  Location     Type
  4076 ;;		None               void
  4077 ;; Registers used:
  4078 ;;		wreg, fsr2l, fsr2h, status,2, status,0, cstack
  4079 ;; Tracked objects:
  4080 ;;		On entry : 0/0
  4081 ;;		On exit  : 0/0
  4082 ;;		Unchanged: 0/0
  4083 ;; Data sizes:     COMRAM   BANK0   BANK1   BANK2   BANK3   BANK4   BANK5   BANK6   BANK7
  4084 ;;      Params:         3       0       0       0       0       0       0       0       0
  4085 ;;      Locals:         2       0       0       0       0       0       0       0       0
  4086 ;;      Temps:          0       0       0       0       0       0       0       0       0
  4087 ;;      Totals:         5       0       0       0       0       0       0       0       0
  4088 ;;Total ram usage:        5 bytes
  4089 ;; Hardware stack levels used:    1
  4090 ;; Hardware stack levels required when called:    1
  4091 ;; This function calls:
  4092 ;;		_Lcd_Chr_CP
  4093 ;;		_Lcd_Cmd
  4094 ;; This function is called by:
  4095 ;;		_main
  4096 ;;		_Prueba2
  4097 ;; This function uses a non-reentrant model
  4098 ;;
  4099                           
  4100                           	psect	text13
  4101  0023AA                     __ptext13:
  4102                           	opt stack 0
  4103  0023AA                     _Lcd_Out:
  4104                           	opt stack 29
  4105                           
  4106                           ;incstack = 0
  4107                           ;Lcd_Out@y stored from wreg
  4108  0023AA  6E07               	movwf	Lcd_Out@y,c
  4109                           
  4110                           ;pantalla.h: 117: unsigned char data;
  4111                           ;pantalla.h: 118: switch (y)
  4112  0023AC  D00D               	goto	l2788
  4113  0023AE                     l2778:
  4114  0023AE  5004               	movf	Lcd_Out@x,w,c
  4115  0023B0  0F80               	addlw	128
  4116  0023B2  D008               	goto	L10
  4117  0023B4                     l2780:
  4118  0023B4  5004               	movf	Lcd_Out@x,w,c
  4119  0023B6  0FC0               	addlw	192
  4120  0023B8  D005               	goto	L10
  4121  0023BA                     l2782:
  4122  0023BA  5004               	movf	Lcd_Out@x,w,c
  4123  0023BC  0F94               	addlw	148
  4124  0023BE  D002               	goto	L10
  4125  0023C0                     l2784:
  4126  0023C0  5004               	movf	Lcd_Out@x,w,c
  4127  0023C2  0FD4               	addlw	212
  4128  0023C4                     L10:
  4129  0023C4  6E08               	movwf	Lcd_Out@data,c
  4130  0023C6  D00D               	goto	l2790
  4131  0023C8                     l2788:
  4132  0023C8  5007               	movf	Lcd_Out@y,w,c
  4133                           
  4134                           ; Switch size 1, requested type "space"
  4135                           ; Number of cases is 4, Range of values is 1 to 4
  4136                           ; switch strategies available:
  4137                           ; Name         Instructions Cycles
  4138                           ; simple_byte           13     7 (average)
  4139                           ;	Chosen strategy is simple_byte
  4140  0023CA  0A01               	xorlw	1	; case 1
  4141  0023CC  B4D8               	btfsc	status,2,c
  4142  0023CE  D7EF               	goto	l2778
  4143  0023D0  0A03               	xorlw	3	; case 2
  4144  0023D2  B4D8               	btfsc	status,2,c
  4145  0023D4  D7EF               	goto	l2780
  4146  0023D6  0A01               	xorlw	1	; case 3
  4147  0023D8  B4D8               	btfsc	status,2,c
  4148  0023DA  D7EF               	goto	l2782
  4149  0023DC  0A07               	xorlw	7	; case 4
  4150  0023DE  B4D8               	btfsc	status,2,c
  4151  0023E0  D7EF               	goto	l2784
  4152  0023E2                     l2790:
  4153                           
  4154                           ;pantalla.h: 126: Lcd_Cmd(data);
  4155  0023E2  5008               	movf	Lcd_Out@data,w,c
  4156  0023E4  EC2E  F00D         	call	_Lcd_Cmd
  4157                           
  4158                           ;pantalla.h: 127: while(*buffer)
  4159  0023E8  D009               	goto	l2796
  4160  0023EA                     l2792:
  4161                           
  4162                           ;pantalla.h: 128: {
  4163                           ;pantalla.h: 129: Lcd_Chr_CP(*buffer);
  4164  0023EA  C005  FFD9         	movff	Lcd_Out@buffer,fsr2l
  4165  0023EE  C006  FFDA         	movff	Lcd_Out@buffer+1,fsr2h
  4166  0023F2  50DF               	movf	indf2,w,c
  4167  0023F4  EC71  F00B         	call	_Lcd_Chr_CP
  4168                           
  4169                           ;pantalla.h: 130: buffer++;
  4170  0023F8  4A05               	infsnz	Lcd_Out@buffer,f,c
  4171  0023FA  2A06               	incf	Lcd_Out@buffer+1,f,c
  4172  0023FC                     l2796:
  4173  0023FC  C005  FFD9         	movff	Lcd_Out@buffer,fsr2l
  4174  002400  C006  FFDA         	movff	Lcd_Out@buffer+1,fsr2h
  4175  002404  50DF               	movf	indf2,w,c
  4176  002406  B4D8               	btfsc	status,2,c
  4177                           
  4178                           ;pantalla.h: 131: }
  4179                           ;pantalla.h: 132: return;
  4180  002408  0012               	return	
  4181  00240A  D7EF               	goto	l2792
  4182  00240C                     __end_of_Lcd_Out:
  4183                           	opt stack 0
  4184                           tblptru	equ	0xFF8
  4185                           tblptrh	equ	0xFF7
  4186                           tblptrl	equ	0xFF6
  4187                           tablat	equ	0xFF5
  4188                           prodh	equ	0xFF4
  4189                           prodl	equ	0xFF3
  4190                           postinc0	equ	0xFEE
  4191                           wreg	equ	0xFE8
  4192                           postinc1	equ	0xFE6
  4193                           postdec1	equ	0xFE5
  4194                           fsr1l	equ	0xFE1
  4195                           indf2	equ	0xFDF
  4196                           postinc2	equ	0xFDE
  4197                           fsr2h	equ	0xFDA
  4198                           fsr2l	equ	0xFD9
  4199                           status	equ	0xFD8
  4200                           
  4201 ;; *************** function _Imprimir_pantalla *****************
  4202 ;; Defined at:
  4203 ;;		line 127 in file "Funciones.h"
  4204 ;; Parameters:    Size  Location     Type
  4205 ;;  N               2    8[COMRAM] PTR unsigned char 
  4206 ;;		 -> ciclo(10), frecuencia(10), 
  4207 ;; Auto vars:     Size  Location     Type
  4208 ;;  columna         1   11[COMRAM] unsigned char 
  4209 ;;  fila            1   10[COMRAM] unsigned char 
  4210 ;; Return value:  Size  Location     Type
  4211 ;;		None               void
  4212 ;; Registers used:
  4213 ;;		wreg, fsr0l, fsr0h, status,2, status,0, tblptrl, tblptrh, tblptru, cstack
  4214 ;; Tracked objects:
  4215 ;;		On entry : 0/0
  4216 ;;		On exit  : 0/0
  4217 ;;		Unchanged: 0/0
  4218 ;; Data sizes:     COMRAM   BANK0   BANK1   BANK2   BANK3   BANK4   BANK5   BANK6   BANK7
  4219 ;;      Params:         2       0       0       0       0       0       0       0       0
  4220 ;;      Locals:         2       0       0       0       0       0       0       0       0
  4221 ;;      Temps:          0       0       0       0       0       0       0       0       0
  4222 ;;      Totals:         4       0       0       0       0       0       0       0       0
  4223 ;;Total ram usage:        4 bytes
  4224 ;; Hardware stack levels used:    1
  4225 ;; Hardware stack levels required when called:    2
  4226 ;; This function calls:
  4227 ;;		_Lcd_Cmd
  4228 ;;		_Lcd_Init
  4229 ;;		_Lcd_Out2
  4230 ;;		_Recuperar
  4231 ;;		_tm_1s
  4232 ;; This function is called by:
  4233 ;;		_main
  4234 ;;		_Prueba1
  4235 ;; This function uses a non-reentrant model
  4236 ;;
  4237                           
  4238                           	psect	text14
  4239  0024B0                     __ptext14:
  4240                           	opt stack 0
  4241  0024B0                     _Imprimir_pantalla:
  4242                           	opt stack 28
  4243                           
  4244                           ;Funciones.h: 129: unsigned char fila = 0, columna=0;
  4245                           
  4246                           ;incstack = 0
  4247  0024B0  0E00               	movlw	0
  4248  0024B2  6E0B               	movwf	Imprimir_pantalla@fila,c
  4249  0024B4  0E00               	movlw	0
  4250  0024B6  6E0C               	movwf	Imprimir_pantalla@columna,c
  4251                           
  4252                           ;Funciones.h: 130: Lcd_Init();
  4253  0024B8  EC07  F00C         	call	_Lcd_Init	;wreg free
  4254                           
  4255                           ;Funciones.h: 131: Lcd_Cmd(1);
  4256  0024BC  0E01               	movlw	1
  4257  0024BE  EC2E  F00D         	call	_Lcd_Cmd
  4258                           
  4259                           ;Funciones.h: 132: Lcd_Cmd(12);
  4260  0024C2  0E0C               	movlw	12
  4261  0024C4  EC2E  F00D         	call	_Lcd_Cmd
  4262                           
  4263                           ;Funciones.h: 135: Lcd_Out2(1,1,N);
  4264  0024C8  0E01               	movlw	1
  4265  0024CA  6E04               	movwf	Lcd_Out2@x,c
  4266  0024CC  C00A  F006         	movff	Imprimir_pantalla@N+1,Lcd_Out2@buffer+1
  4267  0024D0  C009  F005         	movff	Imprimir_pantalla@N,Lcd_Out2@buffer
  4268  0024D4  0E01               	movlw	1
  4269  0024D6  EC8A  F00F         	call	_Lcd_Out2
  4270                           
  4271                           ;Funciones.h: 136: tm_1s();
  4272  0024DA  ECD2  F00F         	call	_tm_1s	;wreg free
  4273                           
  4274                           ;Funciones.h: 137: Lcd_Cmd(1);
  4275  0024DE  0E01               	movlw	1
  4276  0024E0  EC2E  F00D         	call	_Lcd_Cmd
  4277                           
  4278                           ;Funciones.h: 138: key=Recuperar();
  4279  0024E4  ECD3  F012         	call	_Recuperar	;wreg free
  4280  0024E8  6E53               	movwf	_key,c
  4281  0024EA  0012               	return	
  4282  0024EC                     __end_of_Imprimir_pantalla:
  4283                           	opt stack 0
  4284                           tblptru	equ	0xFF8
  4285                           tblptrh	equ	0xFF7
  4286                           tblptrl	equ	0xFF6
  4287                           tablat	equ	0xFF5
  4288                           prodh	equ	0xFF4
  4289                           prodl	equ	0xFF3
  4290                           postinc0	equ	0xFEE
  4291                           wreg	equ	0xFE8
  4292                           postinc1	equ	0xFE6
  4293                           postdec1	equ	0xFE5
  4294                           fsr1l	equ	0xFE1
  4295                           indf2	equ	0xFDF
  4296                           postinc2	equ	0xFDE
  4297                           fsr2h	equ	0xFDA
  4298                           fsr2l	equ	0xFD9
  4299                           status	equ	0xFD8
  4300                           
  4301 ;; *************** function _tm_1s *****************
  4302 ;; Defined at:
  4303 ;;		line 4 in file "delays.h"
  4304 ;; Parameters:    Size  Location     Type
  4305 ;;		None
  4306 ;; Auto vars:     Size  Location     Type
  4307 ;;		None
  4308 ;; Return value:  Size  Location     Type
  4309 ;;		None               void
  4310 ;; Registers used:
  4311 ;;		wreg
  4312 ;; Tracked objects:
  4313 ;;		On entry : 0/0
  4314 ;;		On exit  : 0/0
  4315 ;;		Unchanged: 0/0
  4316 ;; Data sizes:     COMRAM   BANK0   BANK1   BANK2   BANK3   BANK4   BANK5   BANK6   BANK7
  4317 ;;      Params:         0       0       0       0       0       0       0       0       0
  4318 ;;      Locals:         0       0       0       0       0       0       0       0       0
  4319 ;;      Temps:          1       0       0       0       0       0       0       0       0
  4320 ;;      Totals:         1       0       0       0       0       0       0       0       0
  4321 ;;Total ram usage:        1 bytes
  4322 ;; Hardware stack levels used:    1
  4323 ;; This function calls:
  4324 ;;		Nothing
  4325 ;; This function is called by:
  4326 ;;		_Imprimir_pantalla
  4327 ;;		_main
  4328 ;;		_Presentacion
  4329 ;;		_Menu
  4330 ;; This function uses a non-reentrant model
  4331 ;;
  4332                           
  4333                           	psect	text15
  4334  001FA4                     __ptext15:
  4335                           	opt stack 0
  4336  001FA4                     _tm_1s:
  4337                           	opt stack 30
  4338                           
  4339                           ;delays.h: 5: _delay((unsigned long)((100)*(4000000/4000.0)));
  4340                           
  4341                           ;incstack = 0
  4342  001FA4  0E82               	movlw	130
  4343  001FA6  6E01               	movwf	??_tm_1s& (0+255),c
  4344  001FA8  0EDE               	movlw	222
  4345  001FAA                     u3147:
  4346  001FAA  2EE8               	decfsz	wreg,f,c
  4347  001FAC  D7FE               	goto	u3147
  4348  001FAE  2E01               	decfsz	??_tm_1s& (0+255),f,c
  4349  001FB0  D7FC               	goto	u3147
  4350                           
  4351                           ;delays.h: 6: _delay((unsigned long)((100)*(4000000/4000.0)));
  4352  001FB2  0E82               	movlw	130
  4353  001FB4  6E01               	movwf	??_tm_1s& (0+255),c
  4354  001FB6  0EDE               	movlw	222
  4355  001FB8                     u3157:
  4356  001FB8  2EE8               	decfsz	wreg,f,c
  4357  001FBA  D7FE               	goto	u3157
  4358  001FBC  2E01               	decfsz	??_tm_1s& (0+255),f,c
  4359  001FBE  D7FC               	goto	u3157
  4360                           
  4361                           ;delays.h: 7: _delay((unsigned long)((100)*(4000000/4000.0)));
  4362  001FC0  0E82               	movlw	130
  4363  001FC2  6E01               	movwf	??_tm_1s& (0+255),c
  4364  001FC4  0EDE               	movlw	222
  4365  001FC6                     u3167:
  4366  001FC6  2EE8               	decfsz	wreg,f,c
  4367  001FC8  D7FE               	goto	u3167
  4368  001FCA  2E01               	decfsz	??_tm_1s& (0+255),f,c
  4369  001FCC  D7FC               	goto	u3167
  4370                           
  4371                           ;delays.h: 8: _delay((unsigned long)((100)*(4000000/4000.0)));
  4372  001FCE  0E82               	movlw	130
  4373  001FD0  6E01               	movwf	??_tm_1s& (0+255),c
  4374  001FD2  0EDE               	movlw	222
  4375  001FD4                     u3177:
  4376  001FD4  2EE8               	decfsz	wreg,f,c
  4377  001FD6  D7FE               	goto	u3177
  4378  001FD8  2E01               	decfsz	??_tm_1s& (0+255),f,c
  4379  001FDA  D7FC               	goto	u3177
  4380                           
  4381                           ;delays.h: 9: _delay((unsigned long)((100)*(4000000/4000.0)));
  4382  001FDC  0E82               	movlw	130
  4383  001FDE  6E01               	movwf	??_tm_1s& (0+255),c
  4384  001FE0  0EDE               	movlw	222
  4385  001FE2                     u3187:
  4386  001FE2  2EE8               	decfsz	wreg,f,c
  4387  001FE4  D7FE               	goto	u3187
  4388  001FE6  2E01               	decfsz	??_tm_1s& (0+255),f,c
  4389  001FE8  D7FC               	goto	u3187
  4390                           
  4391                           ;delays.h: 10: _delay((unsigned long)((100)*(4000000/4000.0)));
  4392  001FEA  0E82               	movlw	130
  4393  001FEC  6E01               	movwf	??_tm_1s& (0+255),c
  4394  001FEE  0EDE               	movlw	222
  4395  001FF0                     u3197:
  4396  001FF0  2EE8               	decfsz	wreg,f,c
  4397  001FF2  D7FE               	goto	u3197
  4398  001FF4  2E01               	decfsz	??_tm_1s& (0+255),f,c
  4399  001FF6  D7FC               	goto	u3197
  4400                           
  4401                           ;delays.h: 11: _delay((unsigned long)((100)*(4000000/4000.0)));
  4402  001FF8  0E82               	movlw	130
  4403  001FFA  6E01               	movwf	??_tm_1s& (0+255),c
  4404  001FFC  0EDE               	movlw	222
  4405  001FFE                     u3207:
  4406  001FFE  2EE8               	decfsz	wreg,f,c
  4407  002000  D7FE               	goto	u3207
  4408  002002  2E01               	decfsz	??_tm_1s& (0+255),f,c
  4409  002004  D7FC               	goto	u3207
  4410                           
  4411                           ;delays.h: 12: _delay((unsigned long)((100)*(4000000/4000.0)));
  4412  002006  0E82               	movlw	130
  4413  002008  6E01               	movwf	??_tm_1s& (0+255),c
  4414  00200A  0EDE               	movlw	222
  4415  00200C                     u3217:
  4416  00200C  2EE8               	decfsz	wreg,f,c
  4417  00200E  D7FE               	goto	u3217
  4418  002010  2E01               	decfsz	??_tm_1s& (0+255),f,c
  4419  002012  D7FC               	goto	u3217
  4420                           
  4421                           ;delays.h: 13: _delay((unsigned long)((100)*(4000000/4000.0)));
  4422  002014  0E82               	movlw	130
  4423  002016  6E01               	movwf	??_tm_1s& (0+255),c
  4424  002018  0EDE               	movlw	222
  4425  00201A                     u3227:
  4426  00201A  2EE8               	decfsz	wreg,f,c
  4427  00201C  D7FE               	goto	u3227
  4428  00201E  2E01               	decfsz	??_tm_1s& (0+255),f,c
  4429  002020  D7FC               	goto	u3227
  4430                           
  4431                           ;delays.h: 14: _delay((unsigned long)((100)*(4000000/4000.0)));
  4432  002022  0E82               	movlw	130
  4433  002024  6E01               	movwf	??_tm_1s& (0+255),c
  4434  002026  0EDE               	movlw	222
  4435  002028                     u3237:
  4436  002028  2EE8               	decfsz	wreg,f,c
  4437  00202A  D7FE               	goto	u3237
  4438  00202C  2E01               	decfsz	??_tm_1s& (0+255),f,c
  4439  00202E  D7FC               	goto	u3237
  4440  002030  0012               	return	
  4441  002032                     __end_of_tm_1s:
  4442                           	opt stack 0
  4443                           tblptru	equ	0xFF8
  4444                           tblptrh	equ	0xFF7
  4445                           tblptrl	equ	0xFF6
  4446                           tablat	equ	0xFF5
  4447                           prodh	equ	0xFF4
  4448                           prodl	equ	0xFF3
  4449                           postinc0	equ	0xFEE
  4450                           wreg	equ	0xFE8
  4451                           postinc1	equ	0xFE6
  4452                           postdec1	equ	0xFE5
  4453                           fsr1l	equ	0xFE1
  4454                           indf2	equ	0xFDF
  4455                           postinc2	equ	0xFDE
  4456                           fsr2h	equ	0xFDA
  4457                           fsr2l	equ	0xFD9
  4458                           status	equ	0xFD8
  4459                           
  4460 ;; *************** function _Frecuencia *****************
  4461 ;; Defined at:
  4462 ;;		line 69 in file "Funciones.h"
  4463 ;; Parameters:    Size  Location     Type
  4464 ;;  frecuencia      2   20[COMRAM] PTR unsigned char 
  4465 ;;		 -> frecuencia(10), 
  4466 ;; Auto vars:     Size  Location     Type
  4467 ;;		None
  4468 ;; Return value:  Size  Location     Type
  4469 ;;		None               void
  4470 ;; Registers used:
  4471 ;;		wreg, fsr0l, fsr0h, fsr2l, fsr2h, status,2, status,0, tblptrl, tblptrh, tblptru, cstack
  4472 ;; Tracked objects:
  4473 ;;		On entry : 0/0
  4474 ;;		On exit  : 0/0
  4475 ;;		Unchanged: 0/0
  4476 ;; Data sizes:     COMRAM   BANK0   BANK1   BANK2   BANK3   BANK4   BANK5   BANK6   BANK7
  4477 ;;      Params:         2       0       0       0       0       0       0       0       0
  4478 ;;      Locals:         0       0       0       0       0       0       0       0       0
  4479 ;;      Temps:          0       0       0       0       0       0       0       0       0
  4480 ;;      Totals:         2       0       0       0       0       0       0       0       0
  4481 ;;Total ram usage:        2 bytes
  4482 ;; Hardware stack levels used:    1
  4483 ;; Hardware stack levels required when called:    3
  4484 ;; This function calls:
  4485 ;;		_Lcd_Cmd
  4486 ;;		_Lcd_Init
  4487 ;;		_Lcd_Out2
  4488 ;;		_Tec
  4489 ;; This function is called by:
  4490 ;;		_main
  4491 ;;		_Prueba1
  4492 ;; This function uses a non-reentrant model
  4493 ;;
  4494                           
  4495                           	psect	text16
  4496  0024EC                     __ptext16:
  4497                           	opt stack 0
  4498  0024EC                     _Frecuencia:
  4499                           	opt stack 27
  4500                           
  4501                           ;Funciones.h: 70: Lcd_Init();
  4502                           
  4503                           ;incstack = 0
  4504  0024EC  EC07  F00C         	call	_Lcd_Init	;wreg free
  4505                           
  4506                           ;Funciones.h: 71: Lcd_Cmd(1);
  4507  0024F0  0E01               	movlw	1
  4508  0024F2  EC2E  F00D         	call	_Lcd_Cmd
  4509                           
  4510                           ;Funciones.h: 72: Lcd_Cmd(12);
  4511  0024F6  0E0C               	movlw	12
  4512  0024F8  EC2E  F00D         	call	_Lcd_Cmd
  4513                           
  4514                           ;Funciones.h: 73: Lcd_Out2(1,1,"Frecuencia:");
  4515  0024FC  0E01               	movlw	1
  4516  0024FE  6E04               	movwf	Lcd_Out2@x,c
  4517  002500  0E08               	movlw	high STR_10
  4518  002502  6E06               	movwf	Lcd_Out2@buffer+1,c
  4519  002504  0E4A               	movlw	low STR_10
  4520  002506  6E05               	movwf	Lcd_Out2@buffer,c
  4521  002508  0E01               	movlw	1
  4522  00250A  EC8A  F00F         	call	_Lcd_Out2
  4523                           
  4524                           ;Funciones.h: 74: Tec(frecuencia);
  4525  00250E  C016  F00C         	movff	Frecuencia@frecuencia+1,Tec@cadena+1
  4526  002512  C015  F00B         	movff	Frecuencia@frecuencia,Tec@cadena
  4527  002516  EC9B  F00C         	call	_Tec	;wreg free
  4528  00251A  0012               	return	
  4529  00251C                     __end_of_Frecuencia:
  4530                           	opt stack 0
  4531                           tblptru	equ	0xFF8
  4532                           tblptrh	equ	0xFF7
  4533                           tblptrl	equ	0xFF6
  4534                           tablat	equ	0xFF5
  4535                           prodh	equ	0xFF4
  4536                           prodl	equ	0xFF3
  4537                           postinc0	equ	0xFEE
  4538                           wreg	equ	0xFE8
  4539                           postinc1	equ	0xFE6
  4540                           postdec1	equ	0xFE5
  4541                           fsr1l	equ	0xFE1
  4542                           indf2	equ	0xFDF
  4543                           postinc2	equ	0xFDE
  4544                           fsr2h	equ	0xFDA
  4545                           fsr2l	equ	0xFD9
  4546                           status	equ	0xFD8
  4547                           
  4548 ;; *************** function _Conv_Entero *****************
  4549 ;; Defined at:
  4550 ;;		line 12 in file "conversion.c"
  4551 ;; Parameters:    Size  Location     Type
  4552 ;;  numero          4   14[COMRAM] long 
  4553 ;;  conv            2   18[COMRAM] PTR unsigned char 
  4554 ;;		 -> cadena(10), 
  4555 ;; Auto vars:     Size  Location     Type
  4556 ;;  convTemp       21   25[COMRAM] unsigned char [21]
  4557 ;;  numeroReg       4   51[COMRAM] long 
  4558 ;;  punteroActua    2   49[COMRAM] PTR unsigned char 
  4559 ;;		 -> Conv_Entero@convTemp(21), 
  4560 ;;  num             2   46[COMRAM] int 
  4561 ;;  i               1   48[COMRAM] unsigned char 
  4562 ;; Return value:  Size  Location     Type
  4563 ;;                  2   14[COMRAM] int 
  4564 ;; Registers used:
  4565 ;;		wreg, fsr1l, fsr1h, fsr2l, fsr2h, status,2, status,0, prodl, prodh, cstack
  4566 ;; Tracked objects:
  4567 ;;		On entry : 0/0
  4568 ;;		On exit  : 0/0
  4569 ;;		Unchanged: 0/0
  4570 ;; Data sizes:     COMRAM   BANK0   BANK1   BANK2   BANK3   BANK4   BANK5   BANK6   BANK7
  4571 ;;      Params:         6       0       0       0       0       0       0       0       0
  4572 ;;      Locals:        30       0       0       0       0       0       0       0       0
  4573 ;;      Temps:          5       0       0       0       0       0       0       0       0
  4574 ;;      Totals:        41       0       0       0       0       0       0       0       0
  4575 ;;Total ram usage:       41 bytes
  4576 ;; Hardware stack levels used:    1
  4577 ;; Hardware stack levels required when called:    1
  4578 ;; This function calls:
  4579 ;;		___aldiv
  4580 ;;		___almod
  4581 ;;		___lmul
  4582 ;; This function is called by:
  4583 ;;		_main
  4584 ;;		_Prueba2
  4585 ;; This function uses a non-reentrant model
  4586 ;;
  4587                           
  4588                           	psect	text17
  4589  00150A                     __ptext17:
  4590                           	opt stack 0
  4591  00150A                     _Conv_Entero:
  4592                           	opt stack 29
  4593                           
  4594                           ;conversion.c: 14: char convTemp[21];
  4595                           ;conversion.c: 15: register char *punteroActual;
  4596                           ;conversion.c: 16: register int num=0;
  4597                           
  4598                           ;incstack = 0
  4599  00150A  0E00               	movlw	0
  4600  00150C  6E30               	movwf	Conv_Entero@num+1,c
  4601  00150E  0E00               	movlw	0
  4602  001510  6E2F               	movwf	Conv_Entero@num,c
  4603                           
  4604                           ;conversion.c: 17: register char i=0;
  4605  001512  0E00               	movlw	0
  4606  001514  6E31               	movwf	Conv_Entero@i,c
  4607                           
  4608                           ;conversion.c: 18: register long long numeroReg = numero;
  4609  001516  C00F  F034         	movff	Conv_Entero@numero,Conv_Entero@numeroReg
  4610  00151A  C010  F035         	movff	Conv_Entero@numero+1,Conv_Entero@numeroReg+1
  4611  00151E  C011  F036         	movff	Conv_Entero@numero+2,Conv_Entero@numeroReg+2
  4612  001522  C012  F037         	movff	Conv_Entero@numero+3,Conv_Entero@numeroReg+3
  4613                           
  4614                           ;conversion.c: 20: punteroActual = &convTemp[21 - 1];
  4615  001526  0E00               	movlw	high (Conv_Entero@convTemp+20)
  4616  001528  6E33               	movwf	Conv_Entero@punteroActual+1,c
  4617  00152A  0E2E               	movlw	low (Conv_Entero@convTemp+20)
  4618  00152C  6E32               	movwf	Conv_Entero@punteroActual,c
  4619                           
  4620                           ;conversion.c: 21: *punteroActual = 0;
  4621  00152E  C032  FFD9         	movff	Conv_Entero@punteroActual,fsr2l
  4622  001532  C033  FFDA         	movff	Conv_Entero@punteroActual+1,fsr2h
  4623  001536  0E00               	movlw	0
  4624  001538  6EDF               	movwf	indf2,c
  4625                           
  4626                           ;conversion.c: 23: if( numeroReg < 0)
  4627  00153A  5037               	movf	Conv_Entero@numeroReg+3,w,c
  4628  00153C  0A80               	xorlw	128
  4629  00153E  0F80               	addlw	128
  4630  001540  E108               	bnz	u2315
  4631  001542  0E00               	movlw	0
  4632  001544  5C36               	subwf	Conv_Entero@numeroReg+2,w,c
  4633  001546  E105               	bnz	u2315
  4634  001548  0E00               	movlw	0
  4635  00154A  5C35               	subwf	Conv_Entero@numeroReg+1,w,c
  4636  00154C  E102               	bnz	u2315
  4637  00154E  0E00               	movlw	0
  4638  001550  5C34               	subwf	Conv_Entero@numeroReg,w,c
  4639  001552                     u2315:
  4640  001552  B0D8               	btfsc	status,0,c
  4641  001554  D01A               	goto	l2866
  4642                           
  4643                           ;conversion.c: 24: {
  4644                           ;conversion.c: 25: numeroReg*=-1;
  4645  001556  C034  F001         	movff	Conv_Entero@numeroReg,___lmul@multiplier
  4646  00155A  C035  F002         	movff	Conv_Entero@numeroReg+1,___lmul@multiplier+1
  4647  00155E  C036  F003         	movff	Conv_Entero@numeroReg+2,___lmul@multiplier+2
  4648  001562  C037  F004         	movff	Conv_Entero@numeroReg+3,___lmul@multiplier+3
  4649  001566  0EFF               	movlw	255
  4650  001568  6E05               	movwf	___lmul@multiplicand,c
  4651  00156A  0EFF               	movlw	255
  4652  00156C  6E06               	movwf	___lmul@multiplicand+1,c
  4653  00156E  0EFF               	movlw	255
  4654  001570  6E07               	movwf	___lmul@multiplicand+2,c
  4655  001572  0EFF               	movlw	255
  4656  001574  6E08               	movwf	___lmul@multiplicand+3,c
  4657  001576  EC06  F012         	call	___lmul	;wreg free
  4658  00157A  C001  F034         	movff	?___lmul,Conv_Entero@numeroReg
  4659  00157E  C002  F035         	movff	?___lmul+1,Conv_Entero@numeroReg+1
  4660  001582  C003  F036         	movff	?___lmul+2,Conv_Entero@numeroReg+2
  4661  001586  C004  F037         	movff	?___lmul+3,Conv_Entero@numeroReg+3
  4662  00158A                     l2866:
  4663                           
  4664                           ;conversion.c: 29: punteroActual--;
  4665  00158A  0632               	decf	Conv_Entero@punteroActual,f,c
  4666  00158C  A0D8               	btfss	status,0,c
  4667  00158E  0633               	decf	Conv_Entero@punteroActual+1,f,c
  4668                           
  4669                           ;conversion.c: 30: num=numeroReg % 10;
  4670  001590  C034  F001         	movff	Conv_Entero@numeroReg,___almod@dividend
  4671  001594  C035  F002         	movff	Conv_Entero@numeroReg+1,___almod@dividend+1
  4672  001598  C036  F003         	movff	Conv_Entero@numeroReg+2,___almod@dividend+2
  4673  00159C  C037  F004         	movff	Conv_Entero@numeroReg+3,___almod@dividend+3
  4674  0015A0  0E0A               	movlw	10
  4675  0015A2  6E05               	movwf	___almod@divisor,c
  4676  0015A4  0E00               	movlw	0
  4677  0015A6  6E06               	movwf	___almod@divisor+1,c
  4678  0015A8  0E00               	movlw	0
  4679  0015AA  6E07               	movwf	___almod@divisor+2,c
  4680  0015AC  0E00               	movlw	0
  4681  0015AE  6E08               	movwf	___almod@divisor+3,c
  4682  0015B0  ECB7  F00E         	call	___almod	;wreg free
  4683  0015B4  C001  F015         	movff	?___almod,??_Conv_Entero
  4684  0015B8  C002  F016         	movff	?___almod+1,??_Conv_Entero+1
  4685  0015BC  C003  F017         	movff	?___almod+2,??_Conv_Entero+2
  4686  0015C0  C004  F018         	movff	?___almod+3,??_Conv_Entero+3
  4687  0015C4  C015  F02F         	movff	??_Conv_Entero,Conv_Entero@num
  4688  0015C8  C016  F030         	movff	??_Conv_Entero+1,Conv_Entero@num+1
  4689                           
  4690                           ;conversion.c: 32: *punteroActual = num + '0';
  4691  0015CC  502F               	movf	Conv_Entero@num,w,c
  4692  0015CE  0F30               	addlw	48
  4693  0015D0  C032  FFD9         	movff	Conv_Entero@punteroActual,fsr2l
  4694  0015D4  C033  FFDA         	movff	Conv_Entero@punteroActual+1,fsr2h
  4695  0015D8  6EDF               	movwf	indf2,c
  4696                           
  4697                           ;conversion.c: 33: } while(numeroReg /= 10);
  4698  0015DA  C034  F001         	movff	Conv_Entero@numeroReg,___aldiv@dividend
  4699  0015DE  C035  F002         	movff	Conv_Entero@numeroReg+1,___aldiv@dividend+1
  4700  0015E2  C036  F003         	movff	Conv_Entero@numeroReg+2,___aldiv@dividend+2
  4701  0015E6  C037  F004         	movff	Conv_Entero@numeroReg+3,___aldiv@dividend+3
  4702  0015EA  0E0A               	movlw	10
  4703  0015EC  6E05               	movwf	___aldiv@divisor,c
  4704  0015EE  0E00               	movlw	0
  4705  0015F0  6E06               	movwf	___aldiv@divisor+1,c
  4706  0015F2  0E00               	movlw	0
  4707  0015F4  6E07               	movwf	___aldiv@divisor+2,c
  4708  0015F6  0E00               	movlw	0
  4709  0015F8  6E08               	movwf	___aldiv@divisor+3,c
  4710  0015FA  ECC1  F00D         	call	___aldiv	;wreg free
  4711  0015FE  C001  F034         	movff	?___aldiv,Conv_Entero@numeroReg
  4712  001602  C002  F035         	movff	?___aldiv+1,Conv_Entero@numeroReg+1
  4713  001606  C003  F036         	movff	?___aldiv+2,Conv_Entero@numeroReg+2
  4714  00160A  C004  F037         	movff	?___aldiv+3,Conv_Entero@numeroReg+3
  4715  00160E  5037               	movf	(Conv_Entero@numeroReg+3)& (0+255),w,c
  4716  001610  1034               	iorwf	Conv_Entero@numeroReg& (0+255),w,c
  4717  001612  1035               	iorwf	(Conv_Entero@numeroReg+1)& (0+255),w,c
  4718  001614  1036               	iorwf	(Conv_Entero@numeroReg+2)& (0+255),w,c
  4719  001616  A4D8               	btfss	status,2,c
  4720  001618  D7B8               	goto	l2866
  4721                           
  4722                           ;conversion.c: 35: if ( numero < 0)
  4723  00161A  5012               	movf	Conv_Entero@numero+3,w,c
  4724  00161C  0A80               	xorlw	128
  4725  00161E  0F80               	addlw	128
  4726  001620  E108               	bnz	u2335
  4727  001622  0E00               	movlw	0
  4728  001624  5C11               	subwf	Conv_Entero@numero+2,w,c
  4729  001626  E105               	bnz	u2335
  4730  001628  0E00               	movlw	0
  4731  00162A  5C10               	subwf	Conv_Entero@numero+1,w,c
  4732  00162C  E102               	bnz	u2335
  4733  00162E  0E00               	movlw	0
  4734  001630  5C0F               	subwf	Conv_Entero@numero,w,c
  4735  001632                     u2335:
  4736  001632  B0D8               	btfsc	status,0,c
  4737  001634  D009               	goto	l2880
  4738                           
  4739                           ;conversion.c: 36: {
  4740                           ;conversion.c: 37: punteroActual--;
  4741  001636  0632               	decf	Conv_Entero@punteroActual,f,c
  4742  001638  A0D8               	btfss	status,0,c
  4743  00163A  0633               	decf	Conv_Entero@punteroActual+1,f,c
  4744                           
  4745                           ;conversion.c: 38: *punteroActual = '-';
  4746  00163C  C032  FFD9         	movff	Conv_Entero@punteroActual,fsr2l
  4747  001640  C033  FFDA         	movff	Conv_Entero@punteroActual+1,fsr2h
  4748  001644  0E2D               	movlw	45
  4749  001646  6EDF               	movwf	indf2,c
  4750  001648                     l2880:
  4751                           
  4752                           ;conversion.c: 39: }
  4753                           ;conversion.c: 41: numeroReg=convTemp+21-punteroActual;
  4754  001648  C032  F015         	movff	Conv_Entero@punteroActual,??_Conv_Entero
  4755  00164C  C033  F016         	movff	Conv_Entero@punteroActual+1,??_Conv_Entero+1
  4756  001650  1E15               	comf	??_Conv_Entero,f,c
  4757  001652  1E16               	comf	??_Conv_Entero+1,f,c
  4758  001654  4A15               	infsnz	??_Conv_Entero,f,c
  4759  001656  2A16               	incf	??_Conv_Entero+1,f,c
  4760  001658  0E15               	movlw	21
  4761  00165A  2615               	addwf	??_Conv_Entero,f,c
  4762  00165C  0E00               	movlw	0
  4763  00165E  2216               	addwfc	??_Conv_Entero+1,f,c
  4764  001660  0E1A               	movlw	low Conv_Entero@convTemp
  4765  001662  6E17               	movwf	(??_Conv_Entero+2)& (0+255),c
  4766  001664  0E00               	movlw	high Conv_Entero@convTemp
  4767  001666  6E18               	movwf	(??_Conv_Entero+3)& (0+255),c
  4768  001668  5015               	movf	??_Conv_Entero,w,c
  4769  00166A  2617               	addwf	??_Conv_Entero+2,f,c
  4770  00166C  5016               	movf	??_Conv_Entero+1,w,c
  4771  00166E  2218               	addwfc	??_Conv_Entero+3,f,c
  4772  001670  C017  F034         	movff	??_Conv_Entero+2,Conv_Entero@numeroReg
  4773  001674  C018  F035         	movff	??_Conv_Entero+3,Conv_Entero@numeroReg+1
  4774  001678  0E00               	movlw	0
  4775  00167A  BE35               	btfsc	Conv_Entero@numeroReg+1,7,c
  4776  00167C  0EFF               	movlw	-1
  4777  00167E  6E36               	movwf	Conv_Entero@numeroReg+2,c
  4778  001680  6E37               	movwf	Conv_Entero@numeroReg+3,c
  4779                           
  4780                           ;conversion.c: 42: for (i = 0; i< numeroReg; i++)
  4781  001682  0E00               	movlw	0
  4782  001684  6E31               	movwf	Conv_Entero@i,c
  4783  001686  D013               	goto	l2888
  4784  001688                     l2884:
  4785                           
  4786                           ;conversion.c: 43: {
  4787                           ;conversion.c: 49: ((unsigned char *)conv)[i] = ((const unsigned char *)punteroActual)[i
      +                          ];
  4788  001688  5031               	movf	Conv_Entero@i,w,c
  4789  00168A  0D01               	mullw	1
  4790  00168C  50F3               	movf	prodl,w,c
  4791  00168E  2432               	addwf	Conv_Entero@punteroActual,w,c
  4792  001690  6ED9               	movwf	fsr2l,c
  4793  001692  50F4               	movf	prodh,w,c
  4794  001694  2033               	addwfc	Conv_Entero@punteroActual+1,w,c
  4795  001696  6EDA               	movwf	fsr2h,c
  4796  001698  5031               	movf	Conv_Entero@i,w,c
  4797  00169A  0D01               	mullw	1
  4798  00169C  50F3               	movf	prodl,w,c
  4799  00169E  2413               	addwf	Conv_Entero@conv,w,c
  4800  0016A0  6EE1               	movwf	fsr1l,c
  4801  0016A2  50F4               	movf	prodh,w,c
  4802  0016A4  2014               	addwfc	Conv_Entero@conv+1,w,c
  4803  0016A6  6EE2               	movwf	fsr1h,c
  4804  0016A8  CFDF FFE7          	movff	indf2,indf1
  4805  0016AC  2A31               	incf	Conv_Entero@i,f,c
  4806  0016AE                     l2888:
  4807  0016AE  C031  F015         	movff	Conv_Entero@i,??_Conv_Entero
  4808  0016B2  6A16               	clrf	(??_Conv_Entero+1)& (0+255),c
  4809  0016B4  6A17               	clrf	(??_Conv_Entero+2)& (0+255),c
  4810  0016B6  6A18               	clrf	(??_Conv_Entero+3)& (0+255),c
  4811  0016B8  5018               	movf	??_Conv_Entero+3,w,c
  4812  0016BA  0A80               	xorlw	128
  4813  0016BC  6E19               	movwf	(??_Conv_Entero+4)& (0+255),c
  4814  0016BE  5034               	movf	Conv_Entero@numeroReg,w,c
  4815  0016C0  5C15               	subwf	??_Conv_Entero,w,c
  4816  0016C2  5035               	movf	Conv_Entero@numeroReg+1,w,c
  4817  0016C4  5816               	subwfb	??_Conv_Entero+1,w,c
  4818  0016C6  5036               	movf	Conv_Entero@numeroReg+2,w,c
  4819  0016C8  5817               	subwfb	??_Conv_Entero+2,w,c
  4820  0016CA  5037               	movf	Conv_Entero@numeroReg+3,w,c
  4821  0016CC  0A80               	xorlw	128
  4822  0016CE  5819               	subwfb	(??_Conv_Entero+4)& (0+255),w,c
  4823  0016D0  A0D8               	btfss	status,0,c
  4824  0016D2  D7DA               	goto	l2884
  4825                           
  4826                           ;conversion.c: 50: }
  4827                           ;conversion.c: 52: return numeroReg - 1;
  4828  0016D4  0EFF               	movlw	255
  4829  0016D6  2434               	addwf	Conv_Entero@numeroReg,w,c
  4830  0016D8  6E0F               	movwf	?_Conv_Entero,c
  4831  0016DA  0EFF               	movlw	255
  4832  0016DC  2035               	addwfc	Conv_Entero@numeroReg+1,w,c
  4833  0016DE  6E10               	movwf	?_Conv_Entero+1,c
  4834  0016E0  0012               	return	
  4835  0016E2                     __end_of_Conv_Entero:
  4836                           	opt stack 0
  4837                           tblptru	equ	0xFF8
  4838                           tblptrh	equ	0xFF7
  4839                           tblptrl	equ	0xFF6
  4840                           tablat	equ	0xFF5
  4841                           prodh	equ	0xFF4
  4842                           prodl	equ	0xFF3
  4843                           postinc0	equ	0xFEE
  4844                           wreg	equ	0xFE8
  4845                           indf1	equ	0xFE7
  4846                           postinc1	equ	0xFE6
  4847                           postdec1	equ	0xFE5
  4848                           fsr1h	equ	0xFE2
  4849                           fsr1l	equ	0xFE1
  4850                           indf2	equ	0xFDF
  4851                           postinc2	equ	0xFDE
  4852                           fsr2h	equ	0xFDA
  4853                           fsr2l	equ	0xFD9
  4854                           status	equ	0xFD8
  4855                           
  4856 ;; *************** function ___lmul *****************
  4857 ;; Defined at:
  4858 ;;		line 15 in file "/opt/microchip/xc8/v1.32/sources/common/Umul32.c"
  4859 ;; Parameters:    Size  Location     Type
  4860 ;;  multiplier      4    0[COMRAM] unsigned long 
  4861 ;;  multiplicand    4    4[COMRAM] unsigned long 
  4862 ;; Auto vars:     Size  Location     Type
  4863 ;;  product         4    8[COMRAM] unsigned long 
  4864 ;; Return value:  Size  Location     Type
  4865 ;;                  4    0[COMRAM] unsigned long 
  4866 ;; Registers used:
  4867 ;;		wreg, status,2, status,0
  4868 ;; Tracked objects:
  4869 ;;		On entry : 0/0
  4870 ;;		On exit  : 0/0
  4871 ;;		Unchanged: 0/0
  4872 ;; Data sizes:     COMRAM   BANK0   BANK1   BANK2   BANK3   BANK4   BANK5   BANK6   BANK7
  4873 ;;      Params:         8       0       0       0       0       0       0       0       0
  4874 ;;      Locals:         4       0       0       0       0       0       0       0       0
  4875 ;;      Temps:          0       0       0       0       0       0       0       0       0
  4876 ;;      Totals:        12       0       0       0       0       0       0       0       0
  4877 ;;Total ram usage:       12 bytes
  4878 ;; Hardware stack levels used:    1
  4879 ;; This function calls:
  4880 ;;		Nothing
  4881 ;; This function is called by:
  4882 ;;		_PWM_generar
  4883 ;;		_Conv_Entero
  4884 ;; This function uses a non-reentrant model
  4885 ;;
  4886                           
  4887                           	psect	text18
  4888  00240C                     __ptext18:
  4889                           	opt stack 0
  4890  00240C                     ___lmul:
  4891                           	opt stack 29
  4892                           
  4893                           ;incstack = 0
  4894  00240C  0E00               	movlw	0
  4895  00240E  6E09               	movwf	___lmul@product,c
  4896  002410  0E00               	movlw	0
  4897  002412  6E0A               	movwf	___lmul@product+1,c
  4898  002414  0E00               	movlw	0
  4899  002416  6E0B               	movwf	___lmul@product+2,c
  4900  002418  0E00               	movlw	0
  4901  00241A  6E0C               	movwf	___lmul@product+3,c
  4902  00241C                     l2654:
  4903  00241C  A001               	btfss	___lmul@multiplier,0,c
  4904  00241E  D008               	goto	l2658
  4905  002420  5005               	movf	___lmul@multiplicand,w,c
  4906  002422  2609               	addwf	___lmul@product,f,c
  4907  002424  5006               	movf	___lmul@multiplicand+1,w,c
  4908  002426  220A               	addwfc	___lmul@product+1,f,c
  4909  002428  5007               	movf	___lmul@multiplicand+2,w,c
  4910  00242A  220B               	addwfc	___lmul@product+2,f,c
  4911  00242C  5008               	movf	___lmul@multiplicand+3,w,c
  4912  00242E  220C               	addwfc	___lmul@product+3,f,c
  4913  002430                     l2658:
  4914  002430  90D8               	bcf	status,0,c
  4915  002432  3605               	rlcf	___lmul@multiplicand,f,c
  4916  002434  3606               	rlcf	___lmul@multiplicand+1,f,c
  4917  002436  3607               	rlcf	___lmul@multiplicand+2,f,c
  4918  002438  3608               	rlcf	___lmul@multiplicand+3,f,c
  4919  00243A  90D8               	bcf	status,0,c
  4920  00243C  3204               	rrcf	___lmul@multiplier+3,f,c
  4921  00243E  3203               	rrcf	___lmul@multiplier+2,f,c
  4922  002440  3202               	rrcf	___lmul@multiplier+1,f,c
  4923  002442  3201               	rrcf	___lmul@multiplier,f,c
  4924  002444  5004               	movf	___lmul@multiplier+3,w,c
  4925  002446  1001               	iorwf	___lmul@multiplier,w,c
  4926  002448  1002               	iorwf	___lmul@multiplier+1,w,c
  4927  00244A  1003               	iorwf	___lmul@multiplier+2,w,c
  4928  00244C  A4D8               	btfss	status,2,c
  4929  00244E  D7E6               	goto	l2654
  4930  002450  C009  F001         	movff	___lmul@product,?___lmul
  4931  002454  C00A  F002         	movff	___lmul@product+1,?___lmul+1
  4932  002458  C00B  F003         	movff	___lmul@product+2,?___lmul+2
  4933  00245C  C00C  F004         	movff	___lmul@product+3,?___lmul+3
  4934  002460  0012               	return	
  4935  002462                     __end_of___lmul:
  4936                           	opt stack 0
  4937                           tblptru	equ	0xFF8
  4938                           tblptrh	equ	0xFF7
  4939                           tblptrl	equ	0xFF6
  4940                           tablat	equ	0xFF5
  4941                           prodh	equ	0xFF4
  4942                           prodl	equ	0xFF3
  4943                           postinc0	equ	0xFEE
  4944                           wreg	equ	0xFE8
  4945                           indf1	equ	0xFE7
  4946                           postinc1	equ	0xFE6
  4947                           postdec1	equ	0xFE5
  4948                           fsr1h	equ	0xFE2
  4949                           fsr1l	equ	0xFE1
  4950                           indf2	equ	0xFDF
  4951                           postinc2	equ	0xFDE
  4952                           fsr2h	equ	0xFDA
  4953                           fsr2l	equ	0xFD9
  4954                           status	equ	0xFD8
  4955                           
  4956 ;; *************** function ___almod *****************
  4957 ;; Defined at:
  4958 ;;		line 8 in file "/opt/microchip/xc8/v1.32/sources/common/almod.c"
  4959 ;; Parameters:    Size  Location     Type
  4960 ;;  dividend        4    0[COMRAM] long 
  4961 ;;  divisor         4    4[COMRAM] long 
  4962 ;; Auto vars:     Size  Location     Type
  4963 ;;  sign            1    9[COMRAM] unsigned char 
  4964 ;;  counter         1    8[COMRAM] unsigned char 
  4965 ;; Return value:  Size  Location     Type
  4966 ;;                  4    0[COMRAM] long 
  4967 ;; Registers used:
  4968 ;;		wreg, status,2, status,0
  4969 ;; Tracked objects:
  4970 ;;		On entry : 0/0
  4971 ;;		On exit  : 0/0
  4972 ;;		Unchanged: 0/0
  4973 ;; Data sizes:     COMRAM   BANK0   BANK1   BANK2   BANK3   BANK4   BANK5   BANK6   BANK7
  4974 ;;      Params:         8       0       0       0       0       0       0       0       0
  4975 ;;      Locals:         2       0       0       0       0       0       0       0       0
  4976 ;;      Temps:          0       0       0       0       0       0       0       0       0
  4977 ;;      Totals:        10       0       0       0       0       0       0       0       0
  4978 ;;Total ram usage:       10 bytes
  4979 ;; Hardware stack levels used:    1
  4980 ;; This function calls:
  4981 ;;		Nothing
  4982 ;; This function is called by:
  4983 ;;		_Conv_Entero
  4984 ;; This function uses a non-reentrant model
  4985 ;;
  4986                           
  4987                           	psect	text19
  4988  001D6E                     __ptext19:
  4989                           	opt stack 0
  4990  001D6E                     ___almod:
  4991                           	opt stack 29
  4992                           
  4993                           ;incstack = 0
  4994  001D6E  0E00               	movlw	0
  4995  001D70  6E0A               	movwf	___almod@sign,c
  4996  001D72  5004               	movf	___almod@dividend+3,w,c
  4997  001D74  0A80               	xorlw	128
  4998  001D76  0F80               	addlw	128
  4999  001D78  E108               	bnz	u2135
  5000  001D7A  0E00               	movlw	0
  5001  001D7C  5C03               	subwf	___almod@dividend+2,w,c
  5002  001D7E  E105               	bnz	u2135
  5003  001D80  0E00               	movlw	0
  5004  001D82  5C02               	subwf	___almod@dividend+1,w,c
  5005  001D84  E102               	bnz	u2135
  5006  001D86  0E00               	movlw	0
  5007  001D88  5C01               	subwf	___almod@dividend,w,c
  5008  001D8A                     u2135:
  5009  001D8A  B0D8               	btfsc	status,0,c
  5010  001D8C  D00A               	goto	l2714
  5011  001D8E  1E04               	comf	___almod@dividend+3,f,c
  5012  001D90  1E03               	comf	___almod@dividend+2,f,c
  5013  001D92  1E02               	comf	___almod@dividend+1,f,c
  5014  001D94  6C01               	negf	___almod@dividend,c
  5015  001D96  0E00               	movlw	0
  5016  001D98  2202               	addwfc	___almod@dividend+1,f,c
  5017  001D9A  2203               	addwfc	___almod@dividend+2,f,c
  5018  001D9C  2204               	addwfc	___almod@dividend+3,f,c
  5019  001D9E  0E01               	movlw	1
  5020  001DA0  6E0A               	movwf	___almod@sign,c
  5021  001DA2                     l2714:
  5022  001DA2  5008               	movf	___almod@divisor+3,w,c
  5023  001DA4  0A80               	xorlw	128
  5024  001DA6  0F80               	addlw	128
  5025  001DA8  E108               	bnz	u2145
  5026  001DAA  0E00               	movlw	0
  5027  001DAC  5C07               	subwf	___almod@divisor+2,w,c
  5028  001DAE  E105               	bnz	u2145
  5029  001DB0  0E00               	movlw	0
  5030  001DB2  5C06               	subwf	___almod@divisor+1,w,c
  5031  001DB4  E102               	bnz	u2145
  5032  001DB6  0E00               	movlw	0
  5033  001DB8  5C05               	subwf	___almod@divisor,w,c
  5034  001DBA                     u2145:
  5035  001DBA  B0D8               	btfsc	status,0,c
  5036  001DBC  D008               	goto	l2718
  5037  001DBE  1E08               	comf	___almod@divisor+3,f,c
  5038  001DC0  1E07               	comf	___almod@divisor+2,f,c
  5039  001DC2  1E06               	comf	___almod@divisor+1,f,c
  5040  001DC4  6C05               	negf	___almod@divisor,c
  5041  001DC6  0E00               	movlw	0
  5042  001DC8  2206               	addwfc	___almod@divisor+1,f,c
  5043  001DCA  2207               	addwfc	___almod@divisor+2,f,c
  5044  001DCC  2208               	addwfc	___almod@divisor+3,f,c
  5045  001DCE                     l2718:
  5046  001DCE  5008               	movf	___almod@divisor+3,w,c
  5047  001DD0  1005               	iorwf	___almod@divisor,w,c
  5048  001DD2  1006               	iorwf	___almod@divisor+1,w,c
  5049  001DD4  1007               	iorwf	___almod@divisor+2,w,c
  5050  001DD6  B4D8               	btfsc	status,2,c
  5051  001DD8  D024               	goto	l2734
  5052  001DDA  0E01               	movlw	1
  5053  001DDC  6E09               	movwf	___almod@counter,c
  5054  001DDE  D006               	goto	l2724
  5055  001DE0                     l2722:
  5056  001DE0  90D8               	bcf	status,0,c
  5057  001DE2  3605               	rlcf	___almod@divisor,f,c
  5058  001DE4  3606               	rlcf	___almod@divisor+1,f,c
  5059  001DE6  3607               	rlcf	___almod@divisor+2,f,c
  5060  001DE8  3608               	rlcf	___almod@divisor+3,f,c
  5061  001DEA  2A09               	incf	___almod@counter,f,c
  5062  001DEC                     l2724:
  5063  001DEC  AE08               	btfss	___almod@divisor+3,7,c
  5064  001DEE  D7F8               	goto	l2722
  5065  001DF0                     l2726:
  5066  001DF0  5005               	movf	___almod@divisor,w,c
  5067  001DF2  5C01               	subwf	___almod@dividend,w,c
  5068  001DF4  5006               	movf	___almod@divisor+1,w,c
  5069  001DF6  5802               	subwfb	___almod@dividend+1,w,c
  5070  001DF8  5007               	movf	___almod@divisor+2,w,c
  5071  001DFA  5803               	subwfb	___almod@dividend+2,w,c
  5072  001DFC  5008               	movf	___almod@divisor+3,w,c
  5073  001DFE  5804               	subwfb	___almod@dividend+3,w,c
  5074  001E00  A0D8               	btfss	status,0,c
  5075  001E02  D008               	goto	l2730
  5076  001E04  5005               	movf	___almod@divisor,w,c
  5077  001E06  5E01               	subwf	___almod@dividend,f,c
  5078  001E08  5006               	movf	___almod@divisor+1,w,c
  5079  001E0A  5A02               	subwfb	___almod@dividend+1,f,c
  5080  001E0C  5007               	movf	___almod@divisor+2,w,c
  5081  001E0E  5A03               	subwfb	___almod@dividend+2,f,c
  5082  001E10  5008               	movf	___almod@divisor+3,w,c
  5083  001E12  5A04               	subwfb	___almod@dividend+3,f,c
  5084  001E14                     l2730:
  5085  001E14  90D8               	bcf	status,0,c
  5086  001E16  3208               	rrcf	___almod@divisor+3,f,c
  5087  001E18  3207               	rrcf	___almod@divisor+2,f,c
  5088  001E1A  3206               	rrcf	___almod@divisor+1,f,c
  5089  001E1C  3205               	rrcf	___almod@divisor,f,c
  5090  001E1E  2E09               	decfsz	___almod@counter,f,c
  5091  001E20  D7E7               	goto	l2726
  5092  001E22                     l2734:
  5093  001E22  500A               	movf	___almod@sign,w,c
  5094  001E24  B4D8               	btfsc	status,2,c
  5095  001E26  D008               	goto	l2738
  5096  001E28  1E04               	comf	___almod@dividend+3,f,c
  5097  001E2A  1E03               	comf	___almod@dividend+2,f,c
  5098  001E2C  1E02               	comf	___almod@dividend+1,f,c
  5099  001E2E  6C01               	negf	___almod@dividend,c
  5100  001E30  0E00               	movlw	0
  5101  001E32  2202               	addwfc	___almod@dividend+1,f,c
  5102  001E34  2203               	addwfc	___almod@dividend+2,f,c
  5103  001E36  2204               	addwfc	___almod@dividend+3,f,c
  5104  001E38                     l2738:
  5105  001E38  C001  F001         	movff	___almod@dividend,?___almod
  5106  001E3C  C002  F002         	movff	___almod@dividend+1,?___almod+1
  5107  001E40  C003  F003         	movff	___almod@dividend+2,?___almod+2
  5108  001E44  C004  F004         	movff	___almod@dividend+3,?___almod+3
  5109  001E48  0012               	return	
  5110  001E4A                     __end_of___almod:
  5111                           	opt stack 0
  5112                           tblptru	equ	0xFF8
  5113                           tblptrh	equ	0xFF7
  5114                           tblptrl	equ	0xFF6
  5115                           tablat	equ	0xFF5
  5116                           prodh	equ	0xFF4
  5117                           prodl	equ	0xFF3
  5118                           postinc0	equ	0xFEE
  5119                           wreg	equ	0xFE8
  5120                           indf1	equ	0xFE7
  5121                           postinc1	equ	0xFE6
  5122                           postdec1	equ	0xFE5
  5123                           fsr1h	equ	0xFE2
  5124                           fsr1l	equ	0xFE1
  5125                           indf2	equ	0xFDF
  5126                           postinc2	equ	0xFDE
  5127                           fsr2h	equ	0xFDA
  5128                           fsr2l	equ	0xFD9
  5129                           status	equ	0xFD8
  5130                           
  5131 ;; *************** function ___aldiv *****************
  5132 ;; Defined at:
  5133 ;;		line 8 in file "/opt/microchip/xc8/v1.32/sources/common/aldiv.c"
  5134 ;; Parameters:    Size  Location     Type
  5135 ;;  dividend        4    0[COMRAM] long 
  5136 ;;  divisor         4    4[COMRAM] long 
  5137 ;; Auto vars:     Size  Location     Type
  5138 ;;  quotient        4   10[COMRAM] long 
  5139 ;;  sign            1    9[COMRAM] unsigned char 
  5140 ;;  counter         1    8[COMRAM] unsigned char 
  5141 ;; Return value:  Size  Location     Type
  5142 ;;                  4    0[COMRAM] long 
  5143 ;; Registers used:
  5144 ;;		wreg, status,2, status,0
  5145 ;; Tracked objects:
  5146 ;;		On entry : 0/0
  5147 ;;		On exit  : 0/0
  5148 ;;		Unchanged: 0/0
  5149 ;; Data sizes:     COMRAM   BANK0   BANK1   BANK2   BANK3   BANK4   BANK5   BANK6   BANK7
  5150 ;;      Params:         8       0       0       0       0       0       0       0       0
  5151 ;;      Locals:         6       0       0       0       0       0       0       0       0
  5152 ;;      Temps:          0       0       0       0       0       0       0       0       0
  5153 ;;      Totals:        14       0       0       0       0       0       0       0       0
  5154 ;;Total ram usage:       14 bytes
  5155 ;; Hardware stack levels used:    1
  5156 ;; This function calls:
  5157 ;;		Nothing
  5158 ;; This function is called by:
  5159 ;;		_Conv_Entero
  5160 ;; This function uses a non-reentrant model
  5161 ;;
  5162                           
  5163                           	psect	text20
  5164  001B82                     __ptext20:
  5165                           	opt stack 0
  5166  001B82                     ___aldiv:
  5167                           	opt stack 29
  5168                           
  5169                           ;incstack = 0
  5170  001B82  0E00               	movlw	0
  5171  001B84  6E0A               	movwf	___aldiv@sign,c
  5172  001B86  5008               	movf	___aldiv@divisor+3,w,c
  5173  001B88  0A80               	xorlw	128
  5174  001B8A  0F80               	addlw	128
  5175  001B8C  E108               	bnz	u2075
  5176  001B8E  0E00               	movlw	0
  5177  001B90  5C07               	subwf	___aldiv@divisor+2,w,c
  5178  001B92  E105               	bnz	u2075
  5179  001B94  0E00               	movlw	0
  5180  001B96  5C06               	subwf	___aldiv@divisor+1,w,c
  5181  001B98  E102               	bnz	u2075
  5182  001B9A  0E00               	movlw	0
  5183  001B9C  5C05               	subwf	___aldiv@divisor,w,c
  5184  001B9E                     u2075:
  5185  001B9E  B0D8               	btfsc	status,0,c
  5186  001BA0  D00A               	goto	l2670
  5187  001BA2  1E08               	comf	___aldiv@divisor+3,f,c
  5188  001BA4  1E07               	comf	___aldiv@divisor+2,f,c
  5189  001BA6  1E06               	comf	___aldiv@divisor+1,f,c
  5190  001BA8  6C05               	negf	___aldiv@divisor,c
  5191  001BAA  0E00               	movlw	0
  5192  001BAC  2206               	addwfc	___aldiv@divisor+1,f,c
  5193  001BAE  2207               	addwfc	___aldiv@divisor+2,f,c
  5194  001BB0  2208               	addwfc	___aldiv@divisor+3,f,c
  5195  001BB2  0E01               	movlw	1
  5196  001BB4  6E0A               	movwf	___aldiv@sign,c
  5197  001BB6                     l2670:
  5198  001BB6  5004               	movf	___aldiv@dividend+3,w,c
  5199  001BB8  0A80               	xorlw	128
  5200  001BBA  0F80               	addlw	128
  5201  001BBC  E108               	bnz	u2085
  5202  001BBE  0E00               	movlw	0
  5203  001BC0  5C03               	subwf	___aldiv@dividend+2,w,c
  5204  001BC2  E105               	bnz	u2085
  5205  001BC4  0E00               	movlw	0
  5206  001BC6  5C02               	subwf	___aldiv@dividend+1,w,c
  5207  001BC8  E102               	bnz	u2085
  5208  001BCA  0E00               	movlw	0
  5209  001BCC  5C01               	subwf	___aldiv@dividend,w,c
  5210  001BCE                     u2085:
  5211  001BCE  B0D8               	btfsc	status,0,c
  5212  001BD0  D00A               	goto	l2676
  5213  001BD2  1E04               	comf	___aldiv@dividend+3,f,c
  5214  001BD4  1E03               	comf	___aldiv@dividend+2,f,c
  5215  001BD6  1E02               	comf	___aldiv@dividend+1,f,c
  5216  001BD8  6C01               	negf	___aldiv@dividend,c
  5217  001BDA  0E00               	movlw	0
  5218  001BDC  2202               	addwfc	___aldiv@dividend+1,f,c
  5219  001BDE  2203               	addwfc	___aldiv@dividend+2,f,c
  5220  001BE0  2204               	addwfc	___aldiv@dividend+3,f,c
  5221  001BE2  0E01               	movlw	1
  5222  001BE4  1A0A               	xorwf	___aldiv@sign,f,c
  5223  001BE6                     l2676:
  5224  001BE6  0E00               	movlw	0
  5225  001BE8  6E0B               	movwf	___aldiv@quotient,c
  5226  001BEA  0E00               	movlw	0
  5227  001BEC  6E0C               	movwf	___aldiv@quotient+1,c
  5228  001BEE  0E00               	movlw	0
  5229  001BF0  6E0D               	movwf	___aldiv@quotient+2,c
  5230  001BF2  0E00               	movlw	0
  5231  001BF4  6E0E               	movwf	___aldiv@quotient+3,c
  5232  001BF6  5008               	movf	___aldiv@divisor+3,w,c
  5233  001BF8  1005               	iorwf	___aldiv@divisor,w,c
  5234  001BFA  1006               	iorwf	___aldiv@divisor+1,w,c
  5235  001BFC  1007               	iorwf	___aldiv@divisor+2,w,c
  5236  001BFE  B4D8               	btfsc	status,2,c
  5237  001C00  D02A               	goto	l2698
  5238  001C02  0E01               	movlw	1
  5239  001C04  6E09               	movwf	___aldiv@counter,c
  5240  001C06  D006               	goto	l2684
  5241  001C08                     l2682:
  5242  001C08  90D8               	bcf	status,0,c
  5243  001C0A  3605               	rlcf	___aldiv@divisor,f,c
  5244  001C0C  3606               	rlcf	___aldiv@divisor+1,f,c
  5245  001C0E  3607               	rlcf	___aldiv@divisor+2,f,c
  5246  001C10  3608               	rlcf	___aldiv@divisor+3,f,c
  5247  001C12  2A09               	incf	___aldiv@counter,f,c
  5248  001C14                     l2684:
  5249  001C14  AE08               	btfss	___aldiv@divisor+3,7,c
  5250  001C16  D7F8               	goto	l2682
  5251  001C18                     l2686:
  5252  001C18  90D8               	bcf	status,0,c
  5253  001C1A  360B               	rlcf	___aldiv@quotient,f,c
  5254  001C1C  360C               	rlcf	___aldiv@quotient+1,f,c
  5255  001C1E  360D               	rlcf	___aldiv@quotient+2,f,c
  5256  001C20  360E               	rlcf	___aldiv@quotient+3,f,c
  5257  001C22  5005               	movf	___aldiv@divisor,w,c
  5258  001C24  5C01               	subwf	___aldiv@dividend,w,c
  5259  001C26  5006               	movf	___aldiv@divisor+1,w,c
  5260  001C28  5802               	subwfb	___aldiv@dividend+1,w,c
  5261  001C2A  5007               	movf	___aldiv@divisor+2,w,c
  5262  001C2C  5803               	subwfb	___aldiv@dividend+2,w,c
  5263  001C2E  5008               	movf	___aldiv@divisor+3,w,c
  5264  001C30  5804               	subwfb	___aldiv@dividend+3,w,c
  5265  001C32  A0D8               	btfss	status,0,c
  5266  001C34  D009               	goto	l2694
  5267  001C36  5005               	movf	___aldiv@divisor,w,c
  5268  001C38  5E01               	subwf	___aldiv@dividend,f,c
  5269  001C3A  5006               	movf	___aldiv@divisor+1,w,c
  5270  001C3C  5A02               	subwfb	___aldiv@dividend+1,f,c
  5271  001C3E  5007               	movf	___aldiv@divisor+2,w,c
  5272  001C40  5A03               	subwfb	___aldiv@dividend+2,f,c
  5273  001C42  5008               	movf	___aldiv@divisor+3,w,c
  5274  001C44  5A04               	subwfb	___aldiv@dividend+3,f,c
  5275  001C46  800B               	bsf	___aldiv@quotient,0,c
  5276  001C48                     l2694:
  5277  001C48  90D8               	bcf	status,0,c
  5278  001C4A  3208               	rrcf	___aldiv@divisor+3,f,c
  5279  001C4C  3207               	rrcf	___aldiv@divisor+2,f,c
  5280  001C4E  3206               	rrcf	___aldiv@divisor+1,f,c
  5281  001C50  3205               	rrcf	___aldiv@divisor,f,c
  5282  001C52  2E09               	decfsz	___aldiv@counter,f,c
  5283  001C54  D7E1               	goto	l2686
  5284  001C56                     l2698:
  5285  001C56  500A               	movf	___aldiv@sign,w,c
  5286  001C58  B4D8               	btfsc	status,2,c
  5287  001C5A  D008               	goto	l2702
  5288  001C5C  1E0E               	comf	___aldiv@quotient+3,f,c
  5289  001C5E  1E0D               	comf	___aldiv@quotient+2,f,c
  5290  001C60  1E0C               	comf	___aldiv@quotient+1,f,c
  5291  001C62  6C0B               	negf	___aldiv@quotient,c
  5292  001C64  0E00               	movlw	0
  5293  001C66  220C               	addwfc	___aldiv@quotient+1,f,c
  5294  001C68  220D               	addwfc	___aldiv@quotient+2,f,c
  5295  001C6A  220E               	addwfc	___aldiv@quotient+3,f,c
  5296  001C6C                     l2702:
  5297  001C6C  C00B  F001         	movff	___aldiv@quotient,?___aldiv
  5298  001C70  C00C  F002         	movff	___aldiv@quotient+1,?___aldiv+1
  5299  001C74  C00D  F003         	movff	___aldiv@quotient+2,?___aldiv+2
  5300  001C78  C00E  F004         	movff	___aldiv@quotient+3,?___aldiv+3
  5301  001C7C  0012               	return	
  5302  001C7E                     __end_of___aldiv:
  5303                           	opt stack 0
  5304                           tblptru	equ	0xFF8
  5305                           tblptrh	equ	0xFF7
  5306                           tblptrl	equ	0xFF6
  5307                           tablat	equ	0xFF5
  5308                           prodh	equ	0xFF4
  5309                           prodl	equ	0xFF3
  5310                           postinc0	equ	0xFEE
  5311                           wreg	equ	0xFE8
  5312                           indf1	equ	0xFE7
  5313                           postinc1	equ	0xFE6
  5314                           postdec1	equ	0xFE5
  5315                           fsr1h	equ	0xFE2
  5316                           fsr1l	equ	0xFE1
  5317                           indf2	equ	0xFDF
  5318                           postinc2	equ	0xFDE
  5319                           fsr2h	equ	0xFDA
  5320                           fsr2l	equ	0xFD9
  5321                           status	equ	0xFD8
  5322                           
  5323 ;; *************** function _Ciclo *****************
  5324 ;; Defined at:
  5325 ;;		line 76 in file "Funciones.h"
  5326 ;; Parameters:    Size  Location     Type
  5327 ;;  ciclo           2   20[COMRAM] PTR unsigned char 
  5328 ;;		 -> ciclo(10), 
  5329 ;; Auto vars:     Size  Location     Type
  5330 ;;		None
  5331 ;; Return value:  Size  Location     Type
  5332 ;;		None               void
  5333 ;; Registers used:
  5334 ;;		wreg, fsr0l, fsr0h, fsr2l, fsr2h, status,2, status,0, tblptrl, tblptrh, tblptru, cstack
  5335 ;; Tracked objects:
  5336 ;;		On entry : 0/0
  5337 ;;		On exit  : 0/0
  5338 ;;		Unchanged: 0/0
  5339 ;; Data sizes:     COMRAM   BANK0   BANK1   BANK2   BANK3   BANK4   BANK5   BANK6   BANK7
  5340 ;;      Params:         2       0       0       0       0       0       0       0       0
  5341 ;;      Locals:         0       0       0       0       0       0       0       0       0
  5342 ;;      Temps:          0       0       0       0       0       0       0       0       0
  5343 ;;      Totals:         2       0       0       0       0       0       0       0       0
  5344 ;;Total ram usage:        2 bytes
  5345 ;; Hardware stack levels used:    1
  5346 ;; Hardware stack levels required when called:    3
  5347 ;; This function calls:
  5348 ;;		_Lcd_Cmd
  5349 ;;		_Lcd_Init
  5350 ;;		_Lcd_Out2
  5351 ;;		_Tec
  5352 ;; This function is called by:
  5353 ;;		_main
  5354 ;;		_Prueba1
  5355 ;; This function uses a non-reentrant model
  5356 ;;
  5357                           
  5358                           	psect	text21
  5359  00251C                     __ptext21:
  5360                           	opt stack 0
  5361  00251C                     _Ciclo:
  5362                           	opt stack 27
  5363                           
  5364                           ;Funciones.h: 77: Lcd_Init();
  5365                           
  5366                           ;incstack = 0
  5367  00251C  EC07  F00C         	call	_Lcd_Init	;wreg free
  5368                           
  5369                           ;Funciones.h: 78: Lcd_Cmd(1);
  5370  002520  0E01               	movlw	1
  5371  002522  EC2E  F00D         	call	_Lcd_Cmd
  5372                           
  5373                           ;Funciones.h: 79: Lcd_Cmd(12);
  5374  002526  0E0C               	movlw	12
  5375  002528  EC2E  F00D         	call	_Lcd_Cmd
  5376                           
  5377                           ;Funciones.h: 80: Lcd_Out2(1,1,"Ingrese ciclo");
  5378  00252C  0E01               	movlw	1
  5379  00252E  6E04               	movwf	Lcd_Out2@x,c
  5380  002530  0E08               	movlw	high STR_11
  5381  002532  6E06               	movwf	Lcd_Out2@buffer+1,c
  5382  002534  0E2E               	movlw	low STR_11
  5383  002536  6E05               	movwf	Lcd_Out2@buffer,c
  5384  002538  0E01               	movlw	1
  5385  00253A  EC8A  F00F         	call	_Lcd_Out2
  5386                           
  5387                           ;Funciones.h: 81: Tec(ciclo);
  5388  00253E  C016  F00C         	movff	Ciclo@ciclo+1,Tec@cadena+1
  5389  002542  C015  F00B         	movff	Ciclo@ciclo,Tec@cadena
  5390  002546  EC9B  F00C         	call	_Tec	;wreg free
  5391  00254A  0012               	return	
  5392  00254C                     __end_of_Ciclo:
  5393                           	opt stack 0
  5394                           tblptru	equ	0xFF8
  5395                           tblptrh	equ	0xFF7
  5396                           tblptrl	equ	0xFF6
  5397                           tablat	equ	0xFF5
  5398                           prodh	equ	0xFF4
  5399                           prodl	equ	0xFF3
  5400                           postinc0	equ	0xFEE
  5401                           wreg	equ	0xFE8
  5402                           indf1	equ	0xFE7
  5403                           postinc1	equ	0xFE6
  5404                           postdec1	equ	0xFE5
  5405                           fsr1h	equ	0xFE2
  5406                           fsr1l	equ	0xFE1
  5407                           indf2	equ	0xFDF
  5408                           postinc2	equ	0xFDE
  5409                           fsr2h	equ	0xFDA
  5410                           fsr2l	equ	0xFD9
  5411                           status	equ	0xFD8
  5412                           
  5413 ;; *************** function _Tec *****************
  5414 ;; Defined at:
  5415 ;;		line 83 in file "Funciones.h"
  5416 ;; Parameters:    Size  Location     Type
  5417 ;;  cadena          2   10[COMRAM] PTR unsigned char 
  5418 ;;		 -> ciclo(10), frecuencia(10), 
  5419 ;; Auto vars:     Size  Location     Type
  5420 ;;  j               2   17[COMRAM] unsigned int 
  5421 ;;  contador        2   15[COMRAM] unsigned int 
  5422 ;;  i               2   12[COMRAM] unsigned int 
  5423 ;;  Key             1   19[COMRAM] unsigned char 
  5424 ;;  aux             1   14[COMRAM] unsigned char 
  5425 ;; Return value:  Size  Location     Type
  5426 ;;		None               void
  5427 ;; Registers used:
  5428 ;;		wreg, fsr2l, fsr2h, status,2, status,0, cstack
  5429 ;; Tracked objects:
  5430 ;;		On entry : 0/0
  5431 ;;		On exit  : 0/0
  5432 ;;		Unchanged: 0/0
  5433 ;; Data sizes:     COMRAM   BANK0   BANK1   BANK2   BANK3   BANK4   BANK5   BANK6   BANK7
  5434 ;;      Params:         2       0       0       0       0       0       0       0       0
  5435 ;;      Locals:         8       0       0       0       0       0       0       0       0
  5436 ;;      Temps:          0       0       0       0       0       0       0       0       0
  5437 ;;      Totals:        10       0       0       0       0       0       0       0       0
  5438 ;;Total ram usage:       10 bytes
  5439 ;; Hardware stack levels used:    1
  5440 ;; Hardware stack levels required when called:    2
  5441 ;; This function calls:
  5442 ;;		_Lcd_Chr_CP
  5443 ;;		_Recuperar
  5444 ;;		_lcd_goto
  5445 ;; This function is called by:
  5446 ;;		_Frecuencia
  5447 ;;		_Ciclo
  5448 ;; This function uses a non-reentrant model
  5449 ;;
  5450                           
  5451                           	psect	text22
  5452  001936                     __ptext22:
  5453                           	opt stack 0
  5454  001936                     _Tec:
  5455                           	opt stack 27
  5456                           
  5457                           ;Funciones.h: 85: unsigned char Key = '+' , aux;
  5458                           
  5459                           ;incstack = 0
  5460  001936  0E2B               	movlw	43
  5461  001938  6E14               	movwf	Tec@Key,c
  5462                           
  5463                           ;Funciones.h: 86: unsigned int i=0 , j=0, contador = 1;
  5464  00193A  0E00               	movlw	0
  5465  00193C  6E0E               	movwf	Tec@i+1,c
  5466  00193E  0E00               	movlw	0
  5467  001940  6E0D               	movwf	Tec@i,c
  5468  001942  0E00               	movlw	0
  5469  001944  6E13               	movwf	Tec@j+1,c
  5470  001946  0E00               	movlw	0
  5471  001948  6E12               	movwf	Tec@j,c
  5472  00194A  0E00               	movlw	0
  5473  00194C  6E11               	movwf	Tec@contador+1,c
  5474  00194E  0E01               	movlw	1
  5475  001950  6E10               	movwf	Tec@contador,c
  5476                           
  5477                           ;Funciones.h: 88: lcd_goto(contador,2);
  5478  001952  C010  F004         	movff	Tec@contador,lcd_goto@x
  5479  001956  C011  F005         	movff	Tec@contador+1,lcd_goto@x+1
  5480  00195A  0E00               	movlw	0
  5481  00195C  6E07               	movwf	lcd_goto@y+1,c
  5482  00195E  0E02               	movlw	2
  5483  001960  6E06               	movwf	lcd_goto@y,c
  5484  001962  EC31  F012         	call	_lcd_goto	;wreg free
  5485  001966                     l2592:
  5486                           
  5487                           ;Funciones.h: 92: Key = Recuperar();
  5488  001966  ECD3  F012         	call	_Recuperar	;wreg free
  5489  00196A  6E14               	movwf	Tec@Key,c
  5490                           
  5491                           ;Funciones.h: 93: if( Key == ' ')continue;
  5492  00196C  5014               	movf	Tec@Key,w,c
  5493  00196E  0A20               	xorlw	32
  5494  001970  B4D8               	btfsc	status,2,c
  5495  001972  D7F9               	goto	l2592
  5496                           
  5497                           ;Funciones.h: 94: if( Key == '*')break;
  5498  001974  5014               	movf	Tec@Key,w,c
  5499  001976  0A2A               	xorlw	42
  5500  001978  B4D8               	btfsc	status,2,c
  5501  00197A  D067               	goto	l2644
  5502                           
  5503                           ;Funciones.h: 95: if(Key == 'B') {
  5504  00197C  5014               	movf	Tec@Key,w,c
  5505  00197E  0A42               	xorlw	66
  5506  001980  A4D8               	btfss	status,2,c
  5507  001982  D017               	goto	l2610
  5508                           
  5509                           ;Funciones.h: 96: lcd_goto(--contador,2);
  5510  001984  0610               	decf	Tec@contador,f,c
  5511  001986  A0D8               	btfss	status,0,c
  5512  001988  0611               	decf	Tec@contador+1,f,c
  5513  00198A  C010  F004         	movff	Tec@contador,lcd_goto@x
  5514  00198E  C011  F005         	movff	Tec@contador+1,lcd_goto@x+1
  5515  001992  0E00               	movlw	0
  5516  001994  6E07               	movwf	lcd_goto@y+1,c
  5517  001996  0E02               	movlw	2
  5518  001998  6E06               	movwf	lcd_goto@y,c
  5519  00199A  EC31  F012         	call	_lcd_goto	;wreg free
  5520                           
  5521                           ;Funciones.h: 97: if(j!= 0) j--;
  5522  00199E  5013               	movf	Tec@j+1,w,c
  5523  0019A0  1012               	iorwf	Tec@j,w,c
  5524  0019A2  B4D8               	btfsc	status,2,c
  5525  0019A4  D003               	goto	l2608
  5526  0019A6  0612               	decf	Tec@j,f,c
  5527  0019A8  A0D8               	btfss	status,0,c
  5528  0019AA  0613               	decf	Tec@j+1,f,c
  5529  0019AC                     l2608:
  5530                           
  5531                           ;Funciones.h: 98: aux = '\0';
  5532  0019AC  0E00               	movlw	0
  5533  0019AE  6E0F               	movwf	Tec@aux,c
  5534                           
  5535                           ;Funciones.h: 99: continue;
  5536  0019B0  D7DA               	goto	l2592
  5537  0019B2                     l2610:
  5538                           
  5539                           ;Funciones.h: 101: }
  5540                           ;Funciones.h: 102: if(Key == aux){
  5541  0019B2  500F               	movf	Tec@aux,w,c
  5542  0019B4  6214               	cpfseq	Tec@Key,c
  5543  0019B6  D021               	goto	l2624
  5544                           
  5545                           ;Funciones.h: 104: if(Key!='#')
  5546  0019B8  5014               	movf	Tec@Key,w,c
  5547  0019BA  0A23               	xorlw	35
  5548  0019BC  B4D8               	btfsc	status,2,c
  5549  0019BE  D006               	goto	l2616
  5550                           
  5551                           ;Funciones.h: 105: contador --,j--;
  5552  0019C0  0610               	decf	Tec@contador,f,c
  5553  0019C2  A0D8               	btfss	status,0,c
  5554  0019C4  0611               	decf	Tec@contador+1,f,c
  5555  0019C6  0612               	decf	Tec@j,f,c
  5556  0019C8  A0D8               	btfss	status,0,c
  5557  0019CA  0613               	decf	Tec@j+1,f,c
  5558  0019CC                     l2616:
  5559                           
  5560                           ;Funciones.h: 106: lcd_goto(contador++,2);
  5561  0019CC  C010  F004         	movff	Tec@contador,lcd_goto@x
  5562  0019D0  C011  F005         	movff	Tec@contador+1,lcd_goto@x+1
  5563  0019D4  0E00               	movlw	0
  5564  0019D6  6E07               	movwf	lcd_goto@y+1,c
  5565  0019D8  0E02               	movlw	2
  5566  0019DA  6E06               	movwf	lcd_goto@y,c
  5567  0019DC  EC31  F012         	call	_lcd_goto	;wreg free
  5568  0019E0  4A10               	infsnz	Tec@contador,f,c
  5569  0019E2  2A11               	incf	Tec@contador+1,f,c
  5570                           
  5571                           ;Funciones.h: 107: cadena[j++]=Key;
  5572  0019E4  5012               	movf	Tec@j,w,c
  5573  0019E6  240B               	addwf	Tec@cadena,w,c
  5574  0019E8  6ED9               	movwf	fsr2l,c
  5575  0019EA  5013               	movf	Tec@j+1,w,c
  5576  0019EC  200C               	addwfc	Tec@cadena+1,w,c
  5577  0019EE  6EDA               	movwf	fsr2h,c
  5578  0019F0  C014  FFDF         	movff	Tec@Key,indf2
  5579  0019F4  4A12               	infsnz	Tec@j,f,c
  5580  0019F6  2A13               	incf	Tec@j+1,f,c
  5581                           
  5582                           ;Funciones.h: 108: continue;
  5583  0019F8  D7B6               	goto	l2592
  5584  0019FA                     l2624:
  5585                           
  5586                           ;Funciones.h: 109: }
  5587                           ;Funciones.h: 110: i = 0;
  5588  0019FA  0E00               	movlw	0
  5589  0019FC  6E0E               	movwf	Tec@i+1,c
  5590  0019FE  0E00               	movlw	0
  5591  001A00  6E0D               	movwf	Tec@i,c
  5592                           
  5593                           ;Funciones.h: 112: if(Key == '#' && Key!=aux ){
  5594  001A02  5014               	movf	Tec@Key,w,c
  5595  001A04  0A23               	xorlw	35
  5596  001A06  A4D8               	btfss	status,2,c
  5597  001A08  D004               	goto	l2632
  5598  001A0A  5014               	movf	Tec@Key,w,c
  5599  001A0C  180F               	xorwf	Tec@aux,w,c
  5600  001A0E  A4D8               	btfss	status,2,c
  5601  001A10  D019               	goto	L11
  5602  001A12                     l2632:
  5603                           
  5604                           ;Funciones.h: 115: }
  5605                           ;Funciones.h: 116: lcd_goto(contador,2);
  5606  001A12  C010  F004         	movff	Tec@contador,lcd_goto@x
  5607  001A16  C011  F005         	movff	Tec@contador+1,lcd_goto@x+1
  5608  001A1A  0E00               	movlw	0
  5609  001A1C  6E07               	movwf	lcd_goto@y+1,c
  5610  001A1E  0E02               	movlw	2
  5611  001A20  6E06               	movwf	lcd_goto@y,c
  5612  001A22  EC31  F012         	call	_lcd_goto	;wreg free
  5613                           
  5614                           ;Funciones.h: 117: cadena[j++]=Key;
  5615  001A26  5012               	movf	Tec@j,w,c
  5616  001A28  240B               	addwf	Tec@cadena,w,c
  5617  001A2A  6ED9               	movwf	fsr2l,c
  5618  001A2C  5013               	movf	Tec@j+1,w,c
  5619  001A2E  200C               	addwfc	Tec@cadena+1,w,c
  5620  001A30  6EDA               	movwf	fsr2h,c
  5621  001A32  C014  FFDF         	movff	Tec@Key,indf2
  5622  001A36  4A12               	infsnz	Tec@j,f,c
  5623  001A38  2A13               	incf	Tec@j+1,f,c
  5624                           
  5625                           ;Funciones.h: 118: Lcd_Chr_CP(Key);
  5626  001A3A  5014               	movf	Tec@Key,w,c
  5627  001A3C  EC71  F00B         	call	_Lcd_Chr_CP
  5628                           
  5629                           ;Funciones.h: 119: contador++;
  5630  001A40  4A10               	infsnz	Tec@contador,f,c
  5631  001A42  2A11               	incf	Tec@contador+1,f,c
  5632  001A44                     L11:
  5633                           
  5634                           ;Funciones.h: 120: aux=Key;
  5635  001A44  C014  F00F         	movff	Tec@Key,Tec@aux
  5636  001A48  D78E               	goto	l2592
  5637  001A4A                     l2644:
  5638                           
  5639                           ;Funciones.h: 122: cadena[j] = '\0';
  5640  001A4A  5012               	movf	Tec@j,w,c
  5641  001A4C  240B               	addwf	Tec@cadena,w,c
  5642  001A4E  6ED9               	movwf	fsr2l,c
  5643  001A50  5013               	movf	Tec@j+1,w,c
  5644  001A52  200C               	addwfc	Tec@cadena+1,w,c
  5645  001A54  6EDA               	movwf	fsr2h,c
  5646  001A56  0E00               	movlw	0
  5647  001A58  6EDF               	movwf	indf2,c
  5648  001A5A  0012               	return	
  5649  001A5C                     __end_of_Tec:
  5650                           	opt stack 0
  5651                           tblptru	equ	0xFF8
  5652                           tblptrh	equ	0xFF7
  5653                           tblptrl	equ	0xFF6
  5654                           tablat	equ	0xFF5
  5655                           prodh	equ	0xFF4
  5656                           prodl	equ	0xFF3
  5657                           postinc0	equ	0xFEE
  5658                           wreg	equ	0xFE8
  5659                           indf1	equ	0xFE7
  5660                           postinc1	equ	0xFE6
  5661                           postdec1	equ	0xFE5
  5662                           fsr1h	equ	0xFE2
  5663                           fsr1l	equ	0xFE1
  5664                           indf2	equ	0xFDF
  5665                           postinc2	equ	0xFDE
  5666                           fsr2h	equ	0xFDA
  5667                           fsr2l	equ	0xFD9
  5668                           status	equ	0xFD8
  5669                           
  5670 ;; *************** function _lcd_goto *****************
  5671 ;; Defined at:
  5672 ;;		line 184 in file "pantalla.h"
  5673 ;; Parameters:    Size  Location     Type
  5674 ;;  x               2    3[COMRAM] int 
  5675 ;;  y               2    5[COMRAM] int 
  5676 ;; Auto vars:     Size  Location     Type
  5677 ;;  data            1    9[COMRAM] unsigned char 
  5678 ;; Return value:  Size  Location     Type
  5679 ;;		None               void
  5680 ;; Registers used:
  5681 ;;		wreg, status,2, status,0, cstack
  5682 ;; Tracked objects:
  5683 ;;		On entry : 0/0
  5684 ;;		On exit  : 0/0
  5685 ;;		Unchanged: 0/0
  5686 ;; Data sizes:     COMRAM   BANK0   BANK1   BANK2   BANK3   BANK4   BANK5   BANK6   BANK7
  5687 ;;      Params:         4       0       0       0       0       0       0       0       0
  5688 ;;      Locals:         1       0       0       0       0       0       0       0       0
  5689 ;;      Temps:          2       0       0       0       0       0       0       0       0
  5690 ;;      Totals:         7       0       0       0       0       0       0       0       0
  5691 ;;Total ram usage:        7 bytes
  5692 ;; Hardware stack levels used:    1
  5693 ;; Hardware stack levels required when called:    1
  5694 ;; This function calls:
  5695 ;;		_Lcd_Cmd
  5696 ;; This function is called by:
  5697 ;;		_Tec
  5698 ;; This function uses a non-reentrant model
  5699 ;;
  5700                           
  5701                           	psect	text23
  5702  002462                     __ptext23:
  5703                           	opt stack 0
  5704  002462                     _lcd_goto:
  5705                           	opt stack 27
  5706                           
  5707                           ;pantalla.h: 185: unsigned char data;
  5708                           ;pantalla.h: 186: switch (y) {
  5709                           
  5710                           ;incstack = 0
  5711  002462  D00D               	goto	l2514
  5712  002464                     l2504:
  5713  002464  5004               	movf	lcd_goto@x,w,c
  5714  002466  0F80               	addlw	128
  5715  002468  D008               	goto	L14
  5716  00246A                     l2506:
  5717  00246A  5004               	movf	lcd_goto@x,w,c
  5718  00246C  0FC0               	addlw	192
  5719  00246E  D005               	goto	L14
  5720  002470                     l2508:
  5721  002470  5004               	movf	lcd_goto@x,w,c
  5722  002472  0F94               	addlw	148
  5723  002474  D002               	goto	L14
  5724  002476                     l2510:
  5725  002476  5004               	movf	lcd_goto@x,w,c
  5726  002478  0FD4               	addlw	212
  5727  00247A                     L14:
  5728  00247A  6E0A               	movwf	lcd_goto@data,c
  5729  00247C  D015               	goto	l2516
  5730  00247E                     l2514:
  5731  00247E  C006  F008         	movff	lcd_goto@y,??_lcd_goto
  5732  002482  C007  F009         	movff	lcd_goto@y+1,??_lcd_goto+1
  5733                           
  5734                           ; Switch on 2 bytes has been partitioned into a top level switch of size 1, and 1 sub-sw
      +                          itches
  5735                           ; Switch size 1, requested type "space"
  5736                           ; Number of cases is 1, Range of values is 0 to 0
  5737                           ; switch strategies available:
  5738                           ; Name         Instructions Cycles
  5739                           ; simple_byte            4     3 (average)
  5740                           ;	Chosen strategy is simple_byte
  5741  002486  5009               	movf	??_lcd_goto+1,w,c
  5742  002488  0A00               	xorlw	0	; case 0
  5743  00248A  A4D8               	btfss	status,2,c
  5744  00248C  D00D               	goto	l2516
  5745                           
  5746                           ; Switch size 1, requested type "space"
  5747                           ; Number of cases is 4, Range of values is 1 to 4
  5748                           ; switch strategies available:
  5749                           ; Name         Instructions Cycles
  5750                           ; simple_byte           13     7 (average)
  5751                           ;	Chosen strategy is simple_byte
  5752  00248E  5008               	movf	??_lcd_goto,w,c
  5753  002490  0A01               	xorlw	1	; case 1
  5754  002492  B4D8               	btfsc	status,2,c
  5755  002494  D7E7               	goto	l2504
  5756  002496  0A03               	xorlw	3	; case 2
  5757  002498  B4D8               	btfsc	status,2,c
  5758  00249A  D7E7               	goto	l2506
  5759  00249C  0A01               	xorlw	1	; case 3
  5760  00249E  B4D8               	btfsc	status,2,c
  5761  0024A0  D7E7               	goto	l2508
  5762  0024A2  0A07               	xorlw	7	; case 4
  5763  0024A4  B4D8               	btfsc	status,2,c
  5764  0024A6  D7E7               	goto	l2510
  5765  0024A8                     l2516:
  5766                           
  5767                           ;pantalla.h: 193: Lcd_Cmd(data);
  5768  0024A8  500A               	movf	lcd_goto@data,w,c
  5769  0024AA  EC2E  F00D         	call	_Lcd_Cmd
  5770  0024AE  0012               	return	
  5771  0024B0                     __end_of_lcd_goto:
  5772                           	opt stack 0
  5773                           tblptru	equ	0xFF8
  5774                           tblptrh	equ	0xFF7
  5775                           tblptrl	equ	0xFF6
  5776                           tablat	equ	0xFF5
  5777                           prodh	equ	0xFF4
  5778                           prodl	equ	0xFF3
  5779                           postinc0	equ	0xFEE
  5780                           wreg	equ	0xFE8
  5781                           indf1	equ	0xFE7
  5782                           postinc1	equ	0xFE6
  5783                           postdec1	equ	0xFE5
  5784                           fsr1h	equ	0xFE2
  5785                           fsr1l	equ	0xFE1
  5786                           indf2	equ	0xFDF
  5787                           postinc2	equ	0xFDE
  5788                           fsr2h	equ	0xFDA
  5789                           fsr2l	equ	0xFD9
  5790                           status	equ	0xFD8
  5791                           
  5792 ;; *************** function _Recuperar *****************
  5793 ;; Defined at:
  5794 ;;		line 111 in file "teclado.c"
  5795 ;; Parameters:    Size  Location     Type
  5796 ;;		None
  5797 ;; Auto vars:     Size  Location     Type
  5798 ;;  key             1    1[COMRAM] unsigned char 
  5799 ;; Return value:  Size  Location     Type
  5800 ;;                  1    wreg      unsigned char 
  5801 ;; Registers used:
  5802 ;;		wreg, status,2, cstack
  5803 ;; Tracked objects:
  5804 ;;		On entry : 0/0
  5805 ;;		On exit  : 0/0
  5806 ;;		Unchanged: 0/0
  5807 ;; Data sizes:     COMRAM   BANK0   BANK1   BANK2   BANK3   BANK4   BANK5   BANK6   BANK7
  5808 ;;      Params:         0       0       0       0       0       0       0       0       0
  5809 ;;      Locals:         1       0       0       0       0       0       0       0       0
  5810 ;;      Temps:          0       0       0       0       0       0       0       0       0
  5811 ;;      Totals:         1       0       0       0       0       0       0       0       0
  5812 ;;Total ram usage:        1 bytes
  5813 ;; Hardware stack levels used:    1
  5814 ;; Hardware stack levels required when called:    1
  5815 ;; This function calls:
  5816 ;;		_READ_SWITCHES
  5817 ;; This function is called by:
  5818 ;;		_Tec
  5819 ;;		_Imprimir_pantalla
  5820 ;;		_main
  5821 ;;		_Menu
  5822 ;; This function uses a non-reentrant model
  5823 ;;
  5824                           
  5825                           	psect	text24
  5826  0025A6                     __ptext24:
  5827                           	opt stack 0
  5828  0025A6                     _Recuperar:
  5829                           	opt stack 29
  5830                           
  5831                           ;teclado.c: 113: char key = ' ' ;
  5832                           
  5833                           ;incstack = 0
  5834  0025A6  0E20               	movlw	32
  5835  0025A8  6E02               	movwf	Recuperar@key,c
  5836                           
  5837                           ;teclado.c: 115: key = READ_SWITCHES();
  5838  0025AA  EC93  F009         	call	_READ_SWITCHES	;wreg free
  5839  0025AE  6E02               	movwf	Recuperar@key,c
  5840                           
  5841                           ;teclado.c: 117: return key;
  5842  0025B0  5002               	movf	Recuperar@key,w,c
  5843  0025B2  0012               	return	
  5844  0025B4                     __end_of_Recuperar:
  5845                           	opt stack 0
  5846                           tblptru	equ	0xFF8
  5847                           tblptrh	equ	0xFF7
  5848                           tblptrl	equ	0xFF6
  5849                           tablat	equ	0xFF5
  5850                           prodh	equ	0xFF4
  5851                           prodl	equ	0xFF3
  5852                           postinc0	equ	0xFEE
  5853                           wreg	equ	0xFE8
  5854                           indf1	equ	0xFE7
  5855                           postinc1	equ	0xFE6
  5856                           postdec1	equ	0xFE5
  5857                           fsr1h	equ	0xFE2
  5858                           fsr1l	equ	0xFE1
  5859                           indf2	equ	0xFDF
  5860                           postinc2	equ	0xFDE
  5861                           fsr2h	equ	0xFDA
  5862                           fsr2l	equ	0xFD9
  5863                           status	equ	0xFD8
  5864                           
  5865 ;; *************** function _READ_SWITCHES *****************
  5866 ;; Defined at:
  5867 ;;		line 81 in file "teclado.c"
  5868 ;; Parameters:    Size  Location     Type
  5869 ;;		None
  5870 ;; Auto vars:     Size  Location     Type
  5871 ;;		None
  5872 ;; Return value:  Size  Location     Type
  5873 ;;                  1    wreg      unsigned char 
  5874 ;; Registers used:
  5875 ;;		wreg
  5876 ;; Tracked objects:
  5877 ;;		On entry : 0/0
  5878 ;;		On exit  : 0/0
  5879 ;;		Unchanged: 0/0
  5880 ;; Data sizes:     COMRAM   BANK0   BANK1   BANK2   BANK3   BANK4   BANK5   BANK6   BANK7
  5881 ;;      Params:         0       0       0       0       0       0       0       0       0
  5882 ;;      Locals:         0       0       0       0       0       0       0       0       0
  5883 ;;      Temps:          1       0       0       0       0       0       0       0       0
  5884 ;;      Totals:         1       0       0       0       0       0       0       0       0
  5885 ;;Total ram usage:        1 bytes
  5886 ;; Hardware stack levels used:    1
  5887 ;; This function calls:
  5888 ;;		Nothing
  5889 ;; This function is called by:
  5890 ;;		_Recuperar
  5891 ;; This function uses a non-reentrant model
  5892 ;;
  5893                           
  5894                           	psect	text25
  5895  001326                     __ptext25:
  5896                           	opt stack 0
  5897  001326                     _READ_SWITCHES:
  5898                           	opt stack 29
  5899                           
  5900                           ;teclado.c: 83: LATAbits.LATA0=0; LATAbits.LATA1 = 1 ; LATAbits.LATA2 = 1 ; LATAbits.LAT
      +                          A3 = 1 ;
  5901                           
  5902                           ;incstack = 0
  5903  001326  9089               	bcf	3977,0,c	;volatile
  5904  001328  8289               	bsf	3977,1,c	;volatile
  5905  00132A  8489               	bsf	3977,2,c	;volatile
  5906  00132C  8689               	bsf	3977,3,c	;volatile
  5907                           
  5908                           ;teclado.c: 84: if(PORTAbits.RA4 == 0){_delay((unsigned long)((90)*(4000000/4000.0))); w
      +                          hile (PORTAbits.RA4 == 0); return 'D'; }
  5909  00132E  B880               	btfsc	3968,4,c	;volatile
  5910  001330  D00C               	goto	l279
  5911  001332  0E75               	movlw	117
  5912  001334  6E01               	movwf	??_READ_SWITCHES& (0+255),c
  5913  001336  0EE1               	movlw	225
  5914  001338                     u3247:
  5915  001338  2EE8               	decfsz	wreg,f,c
  5916  00133A  D7FE               	goto	u3247
  5917  00133C  2E01               	decfsz	??_READ_SWITCHES& (0+255),f,c
  5918  00133E  D7FC               	goto	u3247
  5919  001340  F000               	nop	
  5920  001342                     l280:
  5921  001342  A880               	btfss	3968,4,c	;volatile
  5922  001344  D7FE               	goto	l280
  5923  001346  0E44               	movlw	68
  5924  001348  0012               	return	
  5925  00134A                     l279:
  5926                           
  5927                           ;teclado.c: 85: if(PORTAbits.RA5 == 0){_delay((unsigned long)((90)*(4000000/4000.0))); w
      +                          hile (PORTAbits.RA5 == 0); return 'C'; }
  5928  00134A  BA80               	btfsc	3968,5,c	;volatile
  5929  00134C  D00C               	goto	l284
  5930  00134E  0E75               	movlw	117
  5931  001350  6E01               	movwf	??_READ_SWITCHES& (0+255),c
  5932  001352  0EE1               	movlw	225
  5933  001354                     u3257:
  5934  001354  2EE8               	decfsz	wreg,f,c
  5935  001356  D7FE               	goto	u3257
  5936  001358  2E01               	decfsz	??_READ_SWITCHES& (0+255),f,c
  5937  00135A  D7FC               	goto	u3257
  5938  00135C  F000               	nop	
  5939  00135E                     l285:
  5940  00135E  AA80               	btfss	3968,5,c	;volatile
  5941  001360  D7FE               	goto	l285
  5942  001362  0E43               	movlw	67
  5943  001364  0012               	return	
  5944  001366                     l284:
  5945                           
  5946                           ;teclado.c: 86: if(PORTAbits.RA6 == 0){_delay((unsigned long)((90)*(4000000/4000.0))); w
      +                          hile (PORTAbits.RA6 == 0); return 'B'; }
  5947  001366  BC80               	btfsc	3968,6,c	;volatile
  5948  001368  D00C               	goto	l288
  5949  00136A  0E75               	movlw	117
  5950  00136C  6E01               	movwf	??_READ_SWITCHES& (0+255),c
  5951  00136E  0EE1               	movlw	225
  5952  001370                     u3267:
  5953  001370  2EE8               	decfsz	wreg,f,c
  5954  001372  D7FE               	goto	u3267
  5955  001374  2E01               	decfsz	??_READ_SWITCHES& (0+255),f,c
  5956  001376  D7FC               	goto	u3267
  5957  001378  F000               	nop	
  5958  00137A                     l289:
  5959  00137A  AC80               	btfss	3968,6,c	;volatile
  5960  00137C  D7FE               	goto	l289
  5961  00137E  0E42               	movlw	66
  5962  001380  0012               	return	
  5963  001382                     l288:
  5964                           
  5965                           ;teclado.c: 87: if(PORTAbits.RA7 == 0){_delay((unsigned long)((90)*(4000000/4000.0))); w
      +                          hile (PORTAbits.RA7 == 0); return 'A'; }
  5966  001382  BE80               	btfsc	3968,7,c	;volatile
  5967  001384  D00C               	goto	l292
  5968  001386  0E75               	movlw	117
  5969  001388  6E01               	movwf	??_READ_SWITCHES& (0+255),c
  5970  00138A  0EE1               	movlw	225
  5971  00138C                     u3277:
  5972  00138C  2EE8               	decfsz	wreg,f,c
  5973  00138E  D7FE               	goto	u3277
  5974  001390  2E01               	decfsz	??_READ_SWITCHES& (0+255),f,c
  5975  001392  D7FC               	goto	u3277
  5976  001394  F000               	nop	
  5977  001396                     l293:
  5978  001396  AE80               	btfss	3968,7,c	;volatile
  5979  001398  D7FE               	goto	l293
  5980  00139A  0E41               	movlw	65
  5981  00139C  0012               	return	
  5982  00139E                     l292:
  5983                           
  5984                           ;teclado.c: 89: LATAbits.LATA0=1; LATAbits.LATA1 = 0 ; LATAbits.LATA2 = 1 ; LATAbits.LAT
      +                          A3 = 1 ;
  5985  00139E  8089               	bsf	3977,0,c	;volatile
  5986  0013A0  9289               	bcf	3977,1,c	;volatile
  5987  0013A2  8489               	bsf	3977,2,c	;volatile
  5988  0013A4  8689               	bsf	3977,3,c	;volatile
  5989                           
  5990                           ;teclado.c: 90: if(PORTAbits.RA4 == 0){_delay((unsigned long)((90)*(4000000/4000.0))); w
      +                          hile (PORTAbits.RA4 == 0); return '#'; }
  5991  0013A6  B880               	btfsc	3968,4,c	;volatile
  5992  0013A8  D00C               	goto	l296
  5993  0013AA  0E75               	movlw	117
  5994  0013AC  6E01               	movwf	??_READ_SWITCHES& (0+255),c
  5995  0013AE  0EE1               	movlw	225
  5996  0013B0                     u3287:
  5997  0013B0  2EE8               	decfsz	wreg,f,c
  5998  0013B2  D7FE               	goto	u3287
  5999  0013B4  2E01               	decfsz	??_READ_SWITCHES& (0+255),f,c
  6000  0013B6  D7FC               	goto	u3287
  6001  0013B8  F000               	nop	
  6002  0013BA                     l297:
  6003  0013BA  A880               	btfss	3968,4,c	;volatile
  6004  0013BC  D7FE               	goto	l297
  6005  0013BE  0E23               	movlw	35
  6006  0013C0  0012               	return	
  6007  0013C2                     l296:
  6008                           
  6009                           ;teclado.c: 91: if(PORTAbits.RA5 == 0){_delay((unsigned long)((90)*(4000000/4000.0))); w
      +                          hile (PORTAbits.RA5 == 0); return '9'; }
  6010  0013C2  BA80               	btfsc	3968,5,c	;volatile
  6011  0013C4  D00C               	goto	l300
  6012  0013C6  0E75               	movlw	117
  6013  0013C8  6E01               	movwf	??_READ_SWITCHES& (0+255),c
  6014  0013CA  0EE1               	movlw	225
  6015  0013CC                     u3297:
  6016  0013CC  2EE8               	decfsz	wreg,f,c
  6017  0013CE  D7FE               	goto	u3297
  6018  0013D0  2E01               	decfsz	??_READ_SWITCHES& (0+255),f,c
  6019  0013D2  D7FC               	goto	u3297
  6020  0013D4  F000               	nop	
  6021  0013D6                     l301:
  6022  0013D6  AA80               	btfss	3968,5,c	;volatile
  6023  0013D8  D7FE               	goto	l301
  6024  0013DA  0E39               	movlw	57
  6025  0013DC  0012               	return	
  6026  0013DE                     l300:
  6027                           
  6028                           ;teclado.c: 92: if(PORTAbits.RA6 == 0){_delay((unsigned long)((90)*(4000000/4000.0))); w
      +                          hile (PORTAbits.RA6 == 0); return '6'; }
  6029  0013DE  BC80               	btfsc	3968,6,c	;volatile
  6030  0013E0  D00C               	goto	l304
  6031  0013E2  0E75               	movlw	117
  6032  0013E4  6E01               	movwf	??_READ_SWITCHES& (0+255),c
  6033  0013E6  0EE1               	movlw	225
  6034  0013E8                     u3307:
  6035  0013E8  2EE8               	decfsz	wreg,f,c
  6036  0013EA  D7FE               	goto	u3307
  6037  0013EC  2E01               	decfsz	??_READ_SWITCHES& (0+255),f,c
  6038  0013EE  D7FC               	goto	u3307
  6039  0013F0  F000               	nop	
  6040  0013F2                     l305:
  6041  0013F2  AC80               	btfss	3968,6,c	;volatile
  6042  0013F4  D7FE               	goto	l305
  6043  0013F6  0E36               	movlw	54
  6044  0013F8  0012               	return	
  6045  0013FA                     l304:
  6046                           
  6047                           ;teclado.c: 93: if(PORTAbits.RA7 == 0){_delay((unsigned long)((90)*(4000000/4000.0))); w
      +                          hile (PORTAbits.RA7 == 0); return '3'; }
  6048  0013FA  BE80               	btfsc	3968,7,c	;volatile
  6049  0013FC  D00C               	goto	l308
  6050  0013FE  0E75               	movlw	117
  6051  001400  6E01               	movwf	??_READ_SWITCHES& (0+255),c
  6052  001402  0EE1               	movlw	225
  6053  001404                     u3317:
  6054  001404  2EE8               	decfsz	wreg,f,c
  6055  001406  D7FE               	goto	u3317
  6056  001408  2E01               	decfsz	??_READ_SWITCHES& (0+255),f,c
  6057  00140A  D7FC               	goto	u3317
  6058  00140C  F000               	nop	
  6059  00140E                     l309:
  6060  00140E  AE80               	btfss	3968,7,c	;volatile
  6061  001410  D7FE               	goto	l309
  6062  001412  0E33               	movlw	51
  6063  001414  0012               	return	
  6064  001416                     l308:
  6065                           
  6066                           ;teclado.c: 95: LATAbits.LATA0=1; LATAbits.LATA1 = 1 ; LATAbits.LATA2 = 0 ; LATAbits.LAT
      +                          A3 = 1 ;
  6067  001416  8089               	bsf	3977,0,c	;volatile
  6068  001418  8289               	bsf	3977,1,c	;volatile
  6069  00141A  9489               	bcf	3977,2,c	;volatile
  6070  00141C  8689               	bsf	3977,3,c	;volatile
  6071                           
  6072                           ;teclado.c: 96: if(PORTAbits.RA4 == 0){_delay((unsigned long)((90)*(4000000/4000.0))); w
      +                          hile (PORTAbits.RA4 == 0); return '0'; }
  6073  00141E  B880               	btfsc	3968,4,c	;volatile
  6074  001420  D00C               	goto	l312
  6075  001422  0E75               	movlw	117
  6076  001424  6E01               	movwf	??_READ_SWITCHES& (0+255),c
  6077  001426  0EE1               	movlw	225
  6078  001428                     u3327:
  6079  001428  2EE8               	decfsz	wreg,f,c
  6080  00142A  D7FE               	goto	u3327
  6081  00142C  2E01               	decfsz	??_READ_SWITCHES& (0+255),f,c
  6082  00142E  D7FC               	goto	u3327
  6083  001430  F000               	nop	
  6084  001432                     l313:
  6085  001432  A880               	btfss	3968,4,c	;volatile
  6086  001434  D7FE               	goto	l313
  6087  001436  0E30               	movlw	48
  6088  001438  0012               	return	
  6089  00143A                     l312:
  6090                           
  6091                           ;teclado.c: 97: if(PORTAbits.RA5 == 0){_delay((unsigned long)((90)*(4000000/4000.0))); w
      +                          hile (PORTAbits.RA5 == 0); return '8'; }
  6092  00143A  BA80               	btfsc	3968,5,c	;volatile
  6093  00143C  D00C               	goto	l316
  6094  00143E  0E75               	movlw	117
  6095  001440  6E01               	movwf	??_READ_SWITCHES& (0+255),c
  6096  001442  0EE1               	movlw	225
  6097  001444                     u3337:
  6098  001444  2EE8               	decfsz	wreg,f,c
  6099  001446  D7FE               	goto	u3337
  6100  001448  2E01               	decfsz	??_READ_SWITCHES& (0+255),f,c
  6101  00144A  D7FC               	goto	u3337
  6102  00144C  F000               	nop	
  6103  00144E                     l317:
  6104  00144E  AA80               	btfss	3968,5,c	;volatile
  6105  001450  D7FE               	goto	l317
  6106  001452  0E38               	movlw	56
  6107  001454  0012               	return	
  6108  001456                     l316:
  6109                           
  6110                           ;teclado.c: 98: if(PORTAbits.RA6 == 0){_delay((unsigned long)((90)*(4000000/4000.0))); w
      +                          hile (PORTAbits.RA6 == 0); return '5'; }
  6111  001456  BC80               	btfsc	3968,6,c	;volatile
  6112  001458  D00C               	goto	l320
  6113  00145A  0E75               	movlw	117
  6114  00145C  6E01               	movwf	??_READ_SWITCHES& (0+255),c
  6115  00145E  0EE1               	movlw	225
  6116  001460                     u3347:
  6117  001460  2EE8               	decfsz	wreg,f,c
  6118  001462  D7FE               	goto	u3347
  6119  001464  2E01               	decfsz	??_READ_SWITCHES& (0+255),f,c
  6120  001466  D7FC               	goto	u3347
  6121  001468  F000               	nop	
  6122  00146A                     l321:
  6123  00146A  AC80               	btfss	3968,6,c	;volatile
  6124  00146C  D7FE               	goto	l321
  6125  00146E  0E35               	movlw	53
  6126  001470  0012               	return	
  6127  001472                     l320:
  6128                           
  6129                           ;teclado.c: 99: if(PORTAbits.RA7 == 0){_delay((unsigned long)((90)*(4000000/4000.0))); w
      +                          hile (PORTAbits.RA7 == 0); return '2'; }
  6130  001472  BE80               	btfsc	3968,7,c	;volatile
  6131  001474  D00C               	goto	l324
  6132  001476  0E75               	movlw	117
  6133  001478  6E01               	movwf	??_READ_SWITCHES& (0+255),c
  6134  00147A  0EE1               	movlw	225
  6135  00147C                     u3357:
  6136  00147C  2EE8               	decfsz	wreg,f,c
  6137  00147E  D7FE               	goto	u3357
  6138  001480  2E01               	decfsz	??_READ_SWITCHES& (0+255),f,c
  6139  001482  D7FC               	goto	u3357
  6140  001484  F000               	nop	
  6141  001486                     l325:
  6142  001486  AE80               	btfss	3968,7,c	;volatile
  6143  001488  D7FE               	goto	l325
  6144  00148A  0E32               	movlw	50
  6145  00148C  0012               	return	
  6146  00148E                     l324:
  6147                           
  6148                           ;teclado.c: 101: LATAbits.LATA0=1; LATAbits.LATA1 = 1 ; LATAbits.LATA2 = 1 ; LATAbits.LA
      +                          TA3 = 0 ;
  6149  00148E  8089               	bsf	3977,0,c	;volatile
  6150  001490  8289               	bsf	3977,1,c	;volatile
  6151  001492  8489               	bsf	3977,2,c	;volatile
  6152  001494  9689               	bcf	3977,3,c	;volatile
  6153                           
  6154                           ;teclado.c: 102: if(PORTAbits.RA4 == 0){_delay((unsigned long)((90)*(4000000/4000.0))); 
      +                          while (PORTAbits.RA4 == 0); return '*'; }
  6155  001496  B880               	btfsc	3968,4,c	;volatile
  6156  001498  D00C               	goto	l328
  6157  00149A  0E75               	movlw	117
  6158  00149C  6E01               	movwf	??_READ_SWITCHES& (0+255),c
  6159  00149E  0EE1               	movlw	225
  6160  0014A0                     u3367:
  6161  0014A0  2EE8               	decfsz	wreg,f,c
  6162  0014A2  D7FE               	goto	u3367
  6163  0014A4  2E01               	decfsz	??_READ_SWITCHES& (0+255),f,c
  6164  0014A6  D7FC               	goto	u3367
  6165  0014A8  F000               	nop	
  6166  0014AA                     l329:
  6167  0014AA  A880               	btfss	3968,4,c	;volatile
  6168  0014AC  D7FE               	goto	l329
  6169  0014AE  0E2A               	movlw	42
  6170  0014B0  0012               	return	
  6171  0014B2                     l328:
  6172                           
  6173                           ;teclado.c: 103: if(PORTAbits.RA5 == 0){_delay((unsigned long)((90)*(4000000/4000.0))); 
      +                          while (PORTAbits.RA5 == 0); return '7'; }
  6174  0014B2  BA80               	btfsc	3968,5,c	;volatile
  6175  0014B4  D00C               	goto	l332
  6176  0014B6  0E75               	movlw	117
  6177  0014B8  6E01               	movwf	??_READ_SWITCHES& (0+255),c
  6178  0014BA  0EE1               	movlw	225
  6179  0014BC                     u3377:
  6180  0014BC  2EE8               	decfsz	wreg,f,c
  6181  0014BE  D7FE               	goto	u3377
  6182  0014C0  2E01               	decfsz	??_READ_SWITCHES& (0+255),f,c
  6183  0014C2  D7FC               	goto	u3377
  6184  0014C4  F000               	nop	
  6185  0014C6                     l333:
  6186  0014C6  AA80               	btfss	3968,5,c	;volatile
  6187  0014C8  D7FE               	goto	l333
  6188  0014CA  0E37               	movlw	55
  6189  0014CC  0012               	return	
  6190  0014CE                     l332:
  6191                           
  6192                           ;teclado.c: 104: if(PORTAbits.RA6 == 0){_delay((unsigned long)((90)*(4000000/4000.0))); 
      +                          while (PORTAbits.RA6 == 0); return '4'; }
  6193  0014CE  BC80               	btfsc	3968,6,c	;volatile
  6194  0014D0  D00C               	goto	l336
  6195  0014D2  0E75               	movlw	117
  6196  0014D4  6E01               	movwf	??_READ_SWITCHES& (0+255),c
  6197  0014D6  0EE1               	movlw	225
  6198  0014D8                     u3387:
  6199  0014D8  2EE8               	decfsz	wreg,f,c
  6200  0014DA  D7FE               	goto	u3387
  6201  0014DC  2E01               	decfsz	??_READ_SWITCHES& (0+255),f,c
  6202  0014DE  D7FC               	goto	u3387
  6203  0014E0  F000               	nop	
  6204  0014E2                     l337:
  6205  0014E2  AC80               	btfss	3968,6,c	;volatile
  6206  0014E4  D7FE               	goto	l337
  6207  0014E6  0E34               	movlw	52
  6208  0014E8  0012               	return	
  6209  0014EA                     l336:
  6210                           
  6211                           ;teclado.c: 105: if(PORTAbits.RA7 == 0){_delay((unsigned long)((90)*(4000000/4000.0))); 
      +                          while (PORTAbits.RA7 == 0); return '1'; }
  6212  0014EA  BE80               	btfsc	3968,7,c	;volatile
  6213  0014EC  D00C               	goto	l2466
  6214  0014EE  0E75               	movlw	117
  6215  0014F0  6E01               	movwf	??_READ_SWITCHES& (0+255),c
  6216  0014F2  0EE1               	movlw	225
  6217  0014F4                     u3397:
  6218  0014F4  2EE8               	decfsz	wreg,f,c
  6219  0014F6  D7FE               	goto	u3397
  6220  0014F8  2E01               	decfsz	??_READ_SWITCHES& (0+255),f,c
  6221  0014FA  D7FC               	goto	u3397
  6222  0014FC  F000               	nop	
  6223  0014FE                     l341:
  6224  0014FE  AE80               	btfss	3968,7,c	;volatile
  6225  001500  D7FE               	goto	l341
  6226  001502  0E31               	movlw	49
  6227  001504  0012               	return	
  6228  001506                     l2466:
  6229                           
  6230                           ;teclado.c: 107: return ' ';
  6231  001506  0E20               	movlw	32
  6232  001508  0012               	return	
  6233  00150A                     __end_of_READ_SWITCHES:
  6234                           	opt stack 0
  6235                           tblptru	equ	0xFF8
  6236                           tblptrh	equ	0xFF7
  6237                           tblptrl	equ	0xFF6
  6238                           tablat	equ	0xFF5
  6239                           prodh	equ	0xFF4
  6240                           prodl	equ	0xFF3
  6241                           postinc0	equ	0xFEE
  6242                           wreg	equ	0xFE8
  6243                           indf1	equ	0xFE7
  6244                           postinc1	equ	0xFE6
  6245                           postdec1	equ	0xFE5
  6246                           fsr1h	equ	0xFE2
  6247                           fsr1l	equ	0xFE1
  6248                           indf2	equ	0xFDF
  6249                           postinc2	equ	0xFDE
  6250                           fsr2h	equ	0xFDA
  6251                           fsr2l	equ	0xFD9
  6252                           status	equ	0xFD8
  6253                           
  6254 ;; *************** function _Lcd_Out2 *****************
  6255 ;; Defined at:
  6256 ;;		line 136 in file "pantalla.h"
  6257 ;; Parameters:    Size  Location     Type
  6258 ;;  y               1    wreg     unsigned char 
  6259 ;;  x               1    3[COMRAM] unsigned char 
  6260 ;;  buffer          2    4[COMRAM] PTR unsigned char 
  6261 ;;		 -> STR_43(6), STR_42(2), STR_41(8), STR_40(3), 
  6262 ;;		 -> STR_39(6), STR_38(9), STR_37(14), STR_36(12), 
  6263 ;;		 -> STR_35(9), STR_34(11), STR_33(11), STR_32(11), 
  6264 ;;		 -> STR_31(11), STR_30(11), STR_29(11), STR_28(11), 
  6265 ;;		 -> STR_27(11), STR_26(11), STR_25(11), STR_24(11), 
  6266 ;;		 -> STR_23(11), STR_22(14), STR_21(12), STR_20(12), 
  6267 ;;		 -> STR_19(10), STR_18(15), STR_17(11), STR_16(16), 
  6268 ;;		 -> STR_15(2), STR_14(8), STR_13(3), STR_12(6), 
  6269 ;;		 -> ciclo(10), frecuencia(10), STR_11(14), STR_10(12), 
  6270 ;;		 -> STR_9(12), STR_8(9), STR_7(14), STR_6(12), 
  6271 ;;		 -> STR_5(12), STR_4(10), STR_3(15), STR_2(11), 
  6272 ;;		 -> STR_1(16), 
  6273 ;; Auto vars:     Size  Location     Type
  6274 ;;  y               1    6[COMRAM] unsigned char 
  6275 ;;  data            1    7[COMRAM] unsigned char 
  6276 ;; Return value:  Size  Location     Type
  6277 ;;		None               void
  6278 ;; Registers used:
  6279 ;;		wreg, fsr0l, fsr0h, status,2, status,0, tblptrl, tblptrh, tblptru, cstack
  6280 ;; Tracked objects:
  6281 ;;		On entry : 0/0
  6282 ;;		On exit  : 0/0
  6283 ;;		Unchanged: 0/0
  6284 ;; Data sizes:     COMRAM   BANK0   BANK1   BANK2   BANK3   BANK4   BANK5   BANK6   BANK7
  6285 ;;      Params:         3       0       0       0       0       0       0       0       0
  6286 ;;      Locals:         2       0       0       0       0       0       0       0       0
  6287 ;;      Temps:          0       0       0       0       0       0       0       0       0
  6288 ;;      Totals:         5       0       0       0       0       0       0       0       0
  6289 ;;Total ram usage:        5 bytes
  6290 ;; Hardware stack levels used:    1
  6291 ;; Hardware stack levels required when called:    1
  6292 ;; This function calls:
  6293 ;;		_Lcd_Chr_CP
  6294 ;;		_Lcd_Cmd
  6295 ;; This function is called by:
  6296 ;;		_Frecuencia
  6297 ;;		_Ciclo
  6298 ;;		_Imprimir_pantalla
  6299 ;;		_main
  6300 ;;		_Presentacion
  6301 ;;		_Menu
  6302 ;;		_Menu_Pwm
  6303 ;;		_Prueba2
  6304 ;; This function uses a non-reentrant model
  6305 ;;
  6306                           
  6307                           	psect	text26
  6308  001F14                     __ptext26:
  6309                           	opt stack 0
  6310  001F14                     _Lcd_Out2:
  6311                           	opt stack 29
  6312                           
  6313                           ;incstack = 0
  6314                           ;Lcd_Out2@y stored from wreg
  6315  001F14  6E07               	movwf	Lcd_Out2@y,c
  6316                           
  6317                           ;pantalla.h: 138: unsigned char data;
  6318                           ;pantalla.h: 139: switch (y)
  6319  001F16  D00D               	goto	l2578
  6320  001F18                     l2568:
  6321  001F18  5004               	movf	Lcd_Out2@x,w,c
  6322  001F1A  0F80               	addlw	128
  6323  001F1C  D008               	goto	L17
  6324  001F1E                     l2570:
  6325  001F1E  5004               	movf	Lcd_Out2@x,w,c
  6326  001F20  0FC0               	addlw	192
  6327  001F22  D005               	goto	L17
  6328  001F24                     l2572:
  6329  001F24  5004               	movf	Lcd_Out2@x,w,c
  6330  001F26  0F94               	addlw	148
  6331  001F28  D002               	goto	L17
  6332  001F2A                     l2574:
  6333  001F2A  5004               	movf	Lcd_Out2@x,w,c
  6334  001F2C  0FD4               	addlw	212
  6335  001F2E                     L17:
  6336  001F2E  6E08               	movwf	Lcd_Out2@data,c
  6337  001F30  D00D               	goto	l2580
  6338  001F32                     l2578:
  6339  001F32  5007               	movf	Lcd_Out2@y,w,c
  6340                           
  6341                           ; Switch size 1, requested type "space"
  6342                           ; Number of cases is 4, Range of values is 1 to 4
  6343                           ; switch strategies available:
  6344                           ; Name         Instructions Cycles
  6345                           ; simple_byte           13     7 (average)
  6346                           ;	Chosen strategy is simple_byte
  6347  001F34  0A01               	xorlw	1	; case 1
  6348  001F36  B4D8               	btfsc	status,2,c
  6349  001F38  D7EF               	goto	l2568
  6350  001F3A  0A03               	xorlw	3	; case 2
  6351  001F3C  B4D8               	btfsc	status,2,c
  6352  001F3E  D7EF               	goto	l2570
  6353  001F40  0A01               	xorlw	1	; case 3
  6354  001F42  B4D8               	btfsc	status,2,c
  6355  001F44  D7EF               	goto	l2572
  6356  001F46  0A07               	xorlw	7	; case 4
  6357  001F48  B4D8               	btfsc	status,2,c
  6358  001F4A  D7EF               	goto	l2574
  6359  001F4C                     l2580:
  6360                           
  6361                           ;pantalla.h: 147: Lcd_Cmd(data);
  6362  001F4C  5008               	movf	Lcd_Out2@data,w,c
  6363  001F4E  EC2E  F00D         	call	_Lcd_Cmd
  6364                           
  6365                           ;pantalla.h: 148: while(*buffer)
  6366  001F52  D014               	goto	l2586
  6367  001F54                     l2582:
  6368                           
  6369                           ;pantalla.h: 149: {
  6370                           ;pantalla.h: 150: Lcd_Chr_CP(*buffer);
  6371  001F54  C005  FFF6         	movff	Lcd_Out2@buffer,tblptrl
  6372  001F58  C006  FFF7         	movff	Lcd_Out2@buffer+1,tblptrh
  6373  001F5C  6AF8               	clrf	tblptru,c
  6374  001F5E  0E07               	movlw	(high __ramtop+-1)
  6375  001F60  64F7               	cpfsgt	tblptrh,c
  6376  001F62  D003               	bra	u1947
  6377  001F64  0008               	tblrd		*
  6378  001F66  50F5               	movf	tablat,w,c
  6379  001F68  D005               	bra	u1940
  6380  001F6A                     u1947:
  6381  001F6A  CFF6 FFE9          	movff	tblptrl,fsr0l
  6382  001F6E  CFF7 FFEA          	movff	tblptrh,fsr0h
  6383  001F72  50EF               	movf	indf0,w,c
  6384  001F74                     u1940:
  6385  001F74  EC71  F00B         	call	_Lcd_Chr_CP
  6386                           
  6387                           ;pantalla.h: 151: buffer++;
  6388  001F78  4A05               	infsnz	Lcd_Out2@buffer,f,c
  6389  001F7A  2A06               	incf	Lcd_Out2@buffer+1,f,c
  6390  001F7C                     l2586:
  6391  001F7C  C005  FFF6         	movff	Lcd_Out2@buffer,tblptrl
  6392  001F80  C006  FFF7         	movff	Lcd_Out2@buffer+1,tblptrh
  6393  001F84  6AF8               	clrf	tblptru,c
  6394  001F86  0E07               	movlw	(high __ramtop+-1)
  6395  001F88  64F7               	cpfsgt	tblptrh,c
  6396  001F8A  D003               	bra	u1957
  6397  001F8C  0008               	tblrd		*
  6398  001F8E  50F5               	movf	tablat,w,c
  6399  001F90  D005               	bra	u1950
  6400  001F92                     u1957:
  6401  001F92  CFF6 FFE9          	movff	tblptrl,fsr0l
  6402  001F96  CFF7 FFEA          	movff	tblptrh,fsr0h
  6403  001F9A  50EF               	movf	indf0,w,c
  6404  001F9C                     u1950:
  6405  001F9C  0900               	iorlw	0
  6406  001F9E  B4D8               	btfsc	status,2,c
  6407                           
  6408                           ;pantalla.h: 152: }
  6409                           ;pantalla.h: 153: return;
  6410  001FA0  0012               	return	
  6411  001FA2  D7D8               	goto	l2582
  6412  001FA4                     __end_of_Lcd_Out2:
  6413                           	opt stack 0
  6414                           tblptru	equ	0xFF8
  6415                           tblptrh	equ	0xFF7
  6416                           tblptrl	equ	0xFF6
  6417                           tablat	equ	0xFF5
  6418                           prodh	equ	0xFF4
  6419                           prodl	equ	0xFF3
  6420                           indf0	equ	0xFEF
  6421                           postinc0	equ	0xFEE
  6422                           fsr0h	equ	0xFEA
  6423                           fsr0l	equ	0xFE9
  6424                           wreg	equ	0xFE8
  6425                           indf1	equ	0xFE7
  6426                           postinc1	equ	0xFE6
  6427                           postdec1	equ	0xFE5
  6428                           fsr1h	equ	0xFE2
  6429                           fsr1l	equ	0xFE1
  6430                           indf2	equ	0xFDF
  6431                           postinc2	equ	0xFDE
  6432                           fsr2h	equ	0xFDA
  6433                           fsr2l	equ	0xFD9
  6434                           status	equ	0xFD8
  6435                           
  6436 ;; *************** function _Lcd_Chr_CP *****************
  6437 ;; Defined at:
  6438 ;;		line 157 in file "pantalla.h"
  6439 ;; Parameters:    Size  Location     Type
  6440 ;;  data            1    wreg     unsigned char 
  6441 ;; Auto vars:     Size  Location     Type
  6442 ;;  data            1    2[COMRAM] unsigned char 
  6443 ;; Return value:  Size  Location     Type
  6444 ;;		None               void
  6445 ;; Registers used:
  6446 ;;		wreg, status,2, status,0
  6447 ;; Tracked objects:
  6448 ;;		On entry : 0/0
  6449 ;;		On exit  : 0/0
  6450 ;;		Unchanged: 0/0
  6451 ;; Data sizes:     COMRAM   BANK0   BANK1   BANK2   BANK3   BANK4   BANK5   BANK6   BANK7
  6452 ;;      Params:         0       0       0       0       0       0       0       0       0
  6453 ;;      Locals:         1       0       0       0       0       0       0       0       0
  6454 ;;      Temps:          2       0       0       0       0       0       0       0       0
  6455 ;;      Totals:         3       0       0       0       0       0       0       0       0
  6456 ;;Total ram usage:        3 bytes
  6457 ;; Hardware stack levels used:    1
  6458 ;; This function calls:
  6459 ;;		Nothing
  6460 ;; This function is called by:
  6461 ;;		_Lcd_Out
  6462 ;;		_Lcd_Out2
  6463 ;;		_Tec
  6464 ;; This function uses a non-reentrant model
  6465 ;;
  6466                           
  6467                           	psect	text27
  6468  0016E2                     __ptext27:
  6469                           	opt stack 0
  6470  0016E2                     _Lcd_Chr_CP:
  6471                           	opt stack 29
  6472                           
  6473                           ;incstack = 0
  6474                           ;Lcd_Chr_CP@data stored from wreg
  6475  0016E2  6E03               	movwf	Lcd_Chr_CP@data,c
  6476                           
  6477                           ;pantalla.h: 158: PORTDbits.RD3 = 0; PORTDbits.RD1 = 1;
  6478  0016E4  9683               	bcf	3971,3,c	;volatile
  6479  0016E6  8283               	bsf	3971,1,c	;volatile
  6480                           
  6481                           ;pantalla.h: 159: PORTDbits.RD7 = (data & 0b10000000)>>7; PORTDbits.RD6 = (data & 0b0100
      +                          0000)>>6;
  6482  0016E8  6A01               	clrf	??_Lcd_Chr_CP& (0+255),c
  6483  0016EA  AE03               	btfss	Lcd_Chr_CP@data,7,c
  6484  0016EC  D001               	bra	u1895
  6485  0016EE  2A01               	incf	??_Lcd_Chr_CP& (0+255),f,c
  6486  0016F0                     u1895:
  6487  0016F0  0E01               	movlw	1
  6488  0016F2  1601               	andwf	??_Lcd_Chr_CP,f,c
  6489  0016F4  3201               	rrcf	??_Lcd_Chr_CP,f,c
  6490  0016F6  3201               	rrcf	??_Lcd_Chr_CP,f,c
  6491  0016F8  5083               	movf	3971,w,c	;volatile
  6492  0016FA  1801               	xorwf	??_Lcd_Chr_CP,w,c
  6493  0016FC  0B7F               	andlw	-129
  6494  0016FE  1801               	xorwf	??_Lcd_Chr_CP,w,c
  6495  001700  6E83               	movwf	3971,c	;volatile
  6496  001702  C003  F001         	movff	Lcd_Chr_CP@data,??_Lcd_Chr_CP
  6497  001706  0E06               	movlw	6
  6498  001708  6E02               	movwf	(??_Lcd_Chr_CP+1)& (0+255),c
  6499  00170A                     u1905:
  6500  00170A  90D8               	bcf	status,0,c
  6501  00170C  3201               	rrcf	??_Lcd_Chr_CP,f,c
  6502  00170E  2E02               	decfsz	(??_Lcd_Chr_CP+1)& (0+255),f,c
  6503  001710  D7FC               	goto	u1905
  6504  001712  0E01               	movlw	1
  6505  001714  1601               	andwf	??_Lcd_Chr_CP,f,c
  6506  001716  3A01               	swapf	??_Lcd_Chr_CP,f,c
  6507  001718  4601               	rlncf	??_Lcd_Chr_CP,f,c
  6508  00171A  4601               	rlncf	??_Lcd_Chr_CP,f,c
  6509  00171C  5083               	movf	3971,w,c	;volatile
  6510  00171E  1801               	xorwf	??_Lcd_Chr_CP,w,c
  6511  001720  0BBF               	andlw	-65
  6512  001722  1801               	xorwf	??_Lcd_Chr_CP,w,c
  6513  001724  6E83               	movwf	3971,c	;volatile
  6514                           
  6515                           ;pantalla.h: 160: PORTDbits.RD5 = (data & 0b00100000)>>5; PORTDbits.RD4 = (data & 0b0001
      +                          0000)>>4;
  6516  001726  C003  F001         	movff	Lcd_Chr_CP@data,??_Lcd_Chr_CP
  6517  00172A  0E05               	movlw	5
  6518  00172C  6E02               	movwf	(??_Lcd_Chr_CP+1)& (0+255),c
  6519  00172E                     u1915:
  6520  00172E  90D8               	bcf	status,0,c
  6521  001730  3201               	rrcf	??_Lcd_Chr_CP,f,c
  6522  001732  2E02               	decfsz	(??_Lcd_Chr_CP+1)& (0+255),f,c
  6523  001734  D7FC               	goto	u1915
  6524  001736  0E01               	movlw	1
  6525  001738  1601               	andwf	??_Lcd_Chr_CP,f,c
  6526  00173A  3A01               	swapf	??_Lcd_Chr_CP,f,c
  6527  00173C  4601               	rlncf	??_Lcd_Chr_CP,f,c
  6528  00173E  5083               	movf	3971,w,c	;volatile
  6529  001740  1801               	xorwf	??_Lcd_Chr_CP,w,c
  6530  001742  0BDF               	andlw	-33
  6531  001744  1801               	xorwf	??_Lcd_Chr_CP,w,c
  6532  001746  6E83               	movwf	3971,c	;volatile
  6533  001748  C003  F001         	movff	Lcd_Chr_CP@data,??_Lcd_Chr_CP
  6534  00174C  3A01               	swapf	??_Lcd_Chr_CP,f,c
  6535  00174E  0E0F               	movlw	15
  6536  001750  1601               	andwf	??_Lcd_Chr_CP,f,c
  6537  001752  0E01               	movlw	1
  6538  001754  1601               	andwf	??_Lcd_Chr_CP,f,c
  6539  001756  3A01               	swapf	??_Lcd_Chr_CP,f,c
  6540  001758  5083               	movf	3971,w,c	;volatile
  6541  00175A  1801               	xorwf	??_Lcd_Chr_CP,w,c
  6542  00175C  0BEF               	andlw	-17
  6543  00175E  1801               	xorwf	??_Lcd_Chr_CP,w,c
  6544  001760  6E83               	movwf	3971,c	;volatile
  6545                           
  6546                           ;pantalla.h: 161: _delay((unsigned long)((10)*(4000000/4000000.0)));
  6547  001762  0E03               	movlw	3
  6548  001764                     u3407:
  6549  001764  2EE8               	decfsz	wreg,f,c
  6550  001766  D7FE               	goto	u3407
  6551  001768  F000               	nop	
  6552                           
  6553                           ;pantalla.h: 162: PORTDbits.RD3 = 1; _delay((unsigned long)((5)*(4000000/4000000.0))); P
      +                          ORTDbits.RD3 = 0;
  6554  00176A  8683               	bsf	3971,3,c	;volatile
  6555  00176C  F000               	nop	
  6556  00176E  D000               	nop2		;2 cycle nop
  6557  001770  D000               	nop2		;2 cycle nop
  6558  001772  9683               	bcf	3971,3,c	;volatile
  6559                           
  6560                           ;pantalla.h: 163: PORTDbits.RD7 = (data & 0b00001000)>>3; PORTDbits.RD6 = (data & 0b0000
      +                          0100)>>2;
  6561  001774  C003  F001         	movff	Lcd_Chr_CP@data,??_Lcd_Chr_CP
  6562  001778  90D8               	bcf	status,0,c
  6563  00177A  3201               	rrcf	??_Lcd_Chr_CP,f,c
  6564  00177C  90D8               	bcf	status,0,c
  6565  00177E  3201               	rrcf	??_Lcd_Chr_CP,f,c
  6566  001780  90D8               	bcf	status,0,c
  6567  001782  3201               	rrcf	??_Lcd_Chr_CP,f,c
  6568  001784  0E01               	movlw	1
  6569  001786  1601               	andwf	??_Lcd_Chr_CP,f,c
  6570  001788  3201               	rrcf	??_Lcd_Chr_CP,f,c
  6571  00178A  3201               	rrcf	??_Lcd_Chr_CP,f,c
  6572  00178C  5083               	movf	3971,w,c	;volatile
  6573  00178E  1801               	xorwf	??_Lcd_Chr_CP,w,c
  6574  001790  0B7F               	andlw	-129
  6575  001792  1801               	xorwf	??_Lcd_Chr_CP,w,c
  6576  001794  6E83               	movwf	3971,c	;volatile
  6577  001796  C003  F001         	movff	Lcd_Chr_CP@data,??_Lcd_Chr_CP
  6578  00179A  90D8               	bcf	status,0,c
  6579  00179C  3201               	rrcf	??_Lcd_Chr_CP,f,c
  6580  00179E  90D8               	bcf	status,0,c
  6581  0017A0  3201               	rrcf	??_Lcd_Chr_CP,f,c
  6582  0017A2  0E01               	movlw	1
  6583  0017A4  1601               	andwf	??_Lcd_Chr_CP,f,c
  6584  0017A6  3A01               	swapf	??_Lcd_Chr_CP,f,c
  6585  0017A8  4601               	rlncf	??_Lcd_Chr_CP,f,c
  6586  0017AA  4601               	rlncf	??_Lcd_Chr_CP,f,c
  6587  0017AC  5083               	movf	3971,w,c	;volatile
  6588  0017AE  1801               	xorwf	??_Lcd_Chr_CP,w,c
  6589  0017B0  0BBF               	andlw	-65
  6590  0017B2  1801               	xorwf	??_Lcd_Chr_CP,w,c
  6591  0017B4  6E83               	movwf	3971,c	;volatile
  6592                           
  6593                           ;pantalla.h: 164: PORTDbits.RD5 = (data & 0b00000010)>>1; PORTDbits.RD4 = (data & 0b0000
      +                          0001);
  6594  0017B6  C003  F001         	movff	Lcd_Chr_CP@data,??_Lcd_Chr_CP
  6595  0017BA  90D8               	bcf	status,0,c
  6596  0017BC  3201               	rrcf	??_Lcd_Chr_CP,f,c
  6597  0017BE  0E01               	movlw	1
  6598  0017C0  1601               	andwf	??_Lcd_Chr_CP,f,c
  6599  0017C2  3A01               	swapf	??_Lcd_Chr_CP,f,c
  6600  0017C4  4601               	rlncf	??_Lcd_Chr_CP,f,c
  6601  0017C6  5083               	movf	3971,w,c	;volatile
  6602  0017C8  1801               	xorwf	??_Lcd_Chr_CP,w,c
  6603  0017CA  0BDF               	andlw	-33
  6604  0017CC  1801               	xorwf	??_Lcd_Chr_CP,w,c
  6605  0017CE  6E83               	movwf	3971,c	;volatile
  6606  0017D0  C003  F001         	movff	Lcd_Chr_CP@data,??_Lcd_Chr_CP
  6607  0017D4  0E01               	movlw	1
  6608  0017D6  1601               	andwf	??_Lcd_Chr_CP,f,c
  6609  0017D8  3A01               	swapf	??_Lcd_Chr_CP,f,c
  6610  0017DA  5083               	movf	3971,w,c	;volatile
  6611  0017DC  1801               	xorwf	??_Lcd_Chr_CP,w,c
  6612  0017DE  0BEF               	andlw	-17
  6613  0017E0  1801               	xorwf	??_Lcd_Chr_CP,w,c
  6614  0017E2  6E83               	movwf	3971,c	;volatile
  6615                           
  6616                           ;pantalla.h: 165: _delay((unsigned long)((10)*(4000000/4000000.0)));
  6617  0017E4  0E03               	movlw	3
  6618  0017E6                     u3417:
  6619  0017E6  2EE8               	decfsz	wreg,f,c
  6620  0017E8  D7FE               	goto	u3417
  6621  0017EA  F000               	nop	
  6622                           
  6623                           ;pantalla.h: 166: PORTDbits.RD3 = 1; _delay((unsigned long)((5)*(4000000/4000000.0))); P
      +                          ORTDbits.RD3 = 0;
  6624  0017EC  8683               	bsf	3971,3,c	;volatile
  6625  0017EE  F000               	nop	
  6626  0017F0  D000               	nop2		;2 cycle nop
  6627  0017F2  D000               	nop2		;2 cycle nop
  6628  0017F4  9683               	bcf	3971,3,c	;volatile
  6629                           
  6630                           ;pantalla.h: 167: _delay((unsigned long)((5)*(4000000/4000000.0))); _delay((unsigned lon
      +                          g)((5500)*(4000000/4000000.0)));
  6631  0017F6  F000               	nop	
  6632  0017F8  D000               	nop2		;2 cycle nop
  6633  0017FA  D000               	nop2		;2 cycle nop
  6634  0017FC  0E08               	movlw	8
  6635  0017FE  6E01               	movwf	??_Lcd_Chr_CP& (0+255),c
  6636  001800  0E23               	movlw	35
  6637  001802                     u3427:
  6638  001802  2EE8               	decfsz	wreg,f,c
  6639  001804  D7FE               	goto	u3427
  6640  001806  2E01               	decfsz	??_Lcd_Chr_CP& (0+255),f,c
  6641  001808  D7FC               	goto	u3427
  6642  00180A  F000               	nop	
  6643  00180C  0012               	return	
  6644  00180E                     __end_of_Lcd_Chr_CP:
  6645                           	opt stack 0
  6646                           tblptru	equ	0xFF8
  6647                           tblptrh	equ	0xFF7
  6648                           tblptrl	equ	0xFF6
  6649                           tablat	equ	0xFF5
  6650                           prodh	equ	0xFF4
  6651                           prodl	equ	0xFF3
  6652                           indf0	equ	0xFEF
  6653                           postinc0	equ	0xFEE
  6654                           fsr0h	equ	0xFEA
  6655                           fsr0l	equ	0xFE9
  6656                           wreg	equ	0xFE8
  6657                           indf1	equ	0xFE7
  6658                           postinc1	equ	0xFE6
  6659                           postdec1	equ	0xFE5
  6660                           fsr1h	equ	0xFE2
  6661                           fsr1l	equ	0xFE1
  6662                           indf2	equ	0xFDF
  6663                           postinc2	equ	0xFDE
  6664                           fsr2h	equ	0xFDA
  6665                           fsr2l	equ	0xFD9
  6666                           status	equ	0xFD8
  6667                           
  6668 ;; *************** function _Lcd_Init *****************
  6669 ;; Defined at:
  6670 ;;		line 71 in file "pantalla.h"
  6671 ;; Parameters:    Size  Location     Type
  6672 ;;		None
  6673 ;; Auto vars:     Size  Location     Type
  6674 ;;  data            1    4[COMRAM] unsigned char 
  6675 ;; Return value:  Size  Location     Type
  6676 ;;		None               void
  6677 ;; Registers used:
  6678 ;;		wreg, status,2, status,0, cstack
  6679 ;; Tracked objects:
  6680 ;;		On entry : 0/0
  6681 ;;		On exit  : 0/0
  6682 ;;		Unchanged: 0/0
  6683 ;; Data sizes:     COMRAM   BANK0   BANK1   BANK2   BANK3   BANK4   BANK5   BANK6   BANK7
  6684 ;;      Params:         0       0       0       0       0       0       0       0       0
  6685 ;;      Locals:         1       0       0       0       0       0       0       0       0
  6686 ;;      Temps:          1       0       0       0       0       0       0       0       0
  6687 ;;      Totals:         2       0       0       0       0       0       0       0       0
  6688 ;;Total ram usage:        2 bytes
  6689 ;; Hardware stack levels used:    1
  6690 ;; Hardware stack levels required when called:    1
  6691 ;; This function calls:
  6692 ;;		_Lcd_Cmd
  6693 ;; This function is called by:
  6694 ;;		_Frecuencia
  6695 ;;		_Ciclo
  6696 ;;		_Imprimir_pantalla
  6697 ;;		_main
  6698 ;;		_Presentacion
  6699 ;;		_Menu
  6700 ;;		_Menu_Pwm
  6701 ;;		_Prueba2
  6702 ;; This function uses a non-reentrant model
  6703 ;;
  6704                           
  6705                           	psect	text28
  6706  00180E                     __ptext28:
  6707                           	opt stack 0
  6708  00180E                     _Lcd_Init:
  6709                           	opt stack 29
  6710                           
  6711                           ;pantalla.h: 72: unsigned char data;
  6712                           ;pantalla.h: 73: TRISDbits.TRISD7 = 0;
  6713                           
  6714                           ;incstack = 0
  6715  00180E  9E95               	bcf	3989,7,c	;volatile
  6716                           
  6717                           ;pantalla.h: 74: TRISDbits.TRISD6 = 0;
  6718  001810  9C95               	bcf	3989,6,c	;volatile
  6719                           
  6720                           ;pantalla.h: 75: TRISDbits.TRISD5 = 0;
  6721  001812  9A95               	bcf	3989,5,c	;volatile
  6722                           
  6723                           ;pantalla.h: 76: TRISDbits.TRISD4 = 0;
  6724  001814  9895               	bcf	3989,4,c	;volatile
  6725                           
  6726                           ;pantalla.h: 77: TRISDbits.TRISD3 = 0;
  6727  001816  9695               	bcf	3989,3,c	;volatile
  6728                           
  6729                           ;pantalla.h: 78: TRISDbits.TRISD1 = 0;
  6730  001818  9295               	bcf	3989,1,c	;volatile
  6731                           
  6732                           ;pantalla.h: 79: TRISDbits.TRISD2 = 0;
  6733  00181A  9495               	bcf	3989,2,c	;volatile
  6734                           
  6735                           ;pantalla.h: 80: PORTDbits.RD7 = 0;
  6736  00181C  9E83               	bcf	3971,7,c	;volatile
  6737                           
  6738                           ;pantalla.h: 81: PORTDbits.RD6 = 0;
  6739  00181E  9C83               	bcf	3971,6,c	;volatile
  6740                           
  6741                           ;pantalla.h: 82: PORTDbits.RD5 = 0;
  6742  001820  9A83               	bcf	3971,5,c	;volatile
  6743                           
  6744                           ;pantalla.h: 83: PORTDbits.RD4 = 0;
  6745  001822  9883               	bcf	3971,4,c	;volatile
  6746                           
  6747                           ;pantalla.h: 84: PORTDbits.RD3 = 0;
  6748  001824  9683               	bcf	3971,3,c	;volatile
  6749                           
  6750                           ;pantalla.h: 85: PORTDbits.RD1 = 0;
  6751  001826  9283               	bcf	3971,1,c	;volatile
  6752                           
  6753                           ;pantalla.h: 86: PORTDbits.RD2 = 0;
  6754  001828  9483               	bcf	3971,2,c	;volatile
  6755                           
  6756                           ;pantalla.h: 87: _delay((unsigned long)((5500)*(4000000/4000000.0)));
  6757  00182A  0E08               	movlw	8
  6758  00182C  6E04               	movwf	??_Lcd_Init& (0+255),c
  6759  00182E  0E23               	movlw	35
  6760  001830                     u3437:
  6761  001830  2EE8               	decfsz	wreg,f,c
  6762  001832  D7FE               	goto	u3437
  6763  001834  2E04               	decfsz	??_Lcd_Init& (0+255),f,c
  6764  001836  D7FC               	goto	u3437
  6765  001838  F000               	nop	
  6766                           
  6767                           ;pantalla.h: 88: _delay((unsigned long)((5500)*(4000000/4000000.0)));
  6768  00183A  0E08               	movlw	8
  6769  00183C  6E04               	movwf	??_Lcd_Init& (0+255),c
  6770  00183E  0E23               	movlw	35
  6771  001840                     u3447:
  6772  001840  2EE8               	decfsz	wreg,f,c
  6773  001842  D7FE               	goto	u3447
  6774  001844  2E04               	decfsz	??_Lcd_Init& (0+255),f,c
  6775  001846  D7FC               	goto	u3447
  6776  001848  F000               	nop	
  6777                           
  6778                           ;pantalla.h: 89: _delay((unsigned long)((5500)*(4000000/4000000.0)));
  6779  00184A  0E08               	movlw	8
  6780  00184C  6E04               	movwf	??_Lcd_Init& (0+255),c
  6781  00184E  0E23               	movlw	35
  6782  001850                     u3457:
  6783  001850  2EE8               	decfsz	wreg,f,c
  6784  001852  D7FE               	goto	u3457
  6785  001854  2E04               	decfsz	??_Lcd_Init& (0+255),f,c
  6786  001856  D7FC               	goto	u3457
  6787  001858  F000               	nop	
  6788                           
  6789                           ;pantalla.h: 90: _delay((unsigned long)((5500)*(4000000/4000000.0)));
  6790  00185A  0E08               	movlw	8
  6791  00185C  6E04               	movwf	??_Lcd_Init& (0+255),c
  6792  00185E  0E23               	movlw	35
  6793  001860                     u3467:
  6794  001860  2EE8               	decfsz	wreg,f,c
  6795  001862  D7FE               	goto	u3467
  6796  001864  2E04               	decfsz	??_Lcd_Init& (0+255),f,c
  6797  001866  D7FC               	goto	u3467
  6798  001868  F000               	nop	
  6799                           
  6800                           ;pantalla.h: 91: _delay((unsigned long)((5500)*(4000000/4000000.0)));
  6801  00186A  0E08               	movlw	8
  6802  00186C  6E04               	movwf	??_Lcd_Init& (0+255),c
  6803  00186E  0E23               	movlw	35
  6804  001870                     u3477:
  6805  001870  2EE8               	decfsz	wreg,f,c
  6806  001872  D7FE               	goto	u3477
  6807  001874  2E04               	decfsz	??_Lcd_Init& (0+255),f,c
  6808  001876  D7FC               	goto	u3477
  6809  001878  F000               	nop	
  6810                           
  6811                           ;pantalla.h: 92: _delay((unsigned long)((5500)*(4000000/4000000.0)));
  6812  00187A  0E08               	movlw	8
  6813  00187C  6E04               	movwf	??_Lcd_Init& (0+255),c
  6814  00187E  0E23               	movlw	35
  6815  001880                     u3487:
  6816  001880  2EE8               	decfsz	wreg,f,c
  6817  001882  D7FE               	goto	u3487
  6818  001884  2E04               	decfsz	??_Lcd_Init& (0+255),f,c
  6819  001886  D7FC               	goto	u3487
  6820  001888  F000               	nop	
  6821                           
  6822                           ;pantalla.h: 93: for(data = 1; data < 4; data ++)
  6823  00188A  0E01               	movlw	1
  6824  00188C  6E05               	movwf	Lcd_Init@data,c
  6825  00188E  D01E               	goto	L18
  6826  001890                     l50:
  6827                           
  6828                           ;pantalla.h: 94: {
  6829                           ;pantalla.h: 95: PORTDbits.RD7 = 0; PORTDbits.RD6 = 0; PORTDbits.RD5 = 1; PORTDbits.RD4 
      +                          = 1; PORTDbits.RD3 = 0;
  6830  001890  9E83               	bcf	3971,7,c	;volatile
  6831  001892  9C83               	bcf	3971,6,c	;volatile
  6832  001894  8A83               	bsf	3971,5,c	;volatile
  6833  001896  8883               	bsf	3971,4,c	;volatile
  6834  001898  9683               	bcf	3971,3,c	;volatile
  6835                           
  6836                           ;pantalla.h: 96: PORTDbits.RD1 = 0; PORTDbits.RD7 = 0; PORTDbits.RD6 = 0; PORTDbits.RD5 
      +                          = 1; PORTDbits.RD4 = 1;
  6837  00189A  9283               	bcf	3971,1,c	;volatile
  6838  00189C  9E83               	bcf	3971,7,c	;volatile
  6839  00189E  9C83               	bcf	3971,6,c	;volatile
  6840  0018A0  8A83               	bsf	3971,5,c	;volatile
  6841  0018A2  8883               	bsf	3971,4,c	;volatile
  6842                           
  6843                           ;pantalla.h: 97: PORTDbits.RD3 = 1; PORTDbits.RD1 = 0;
  6844  0018A4  8683               	bsf	3971,3,c	;volatile
  6845  0018A6  9283               	bcf	3971,1,c	;volatile
  6846                           
  6847                           ;pantalla.h: 98: _delay((unsigned long)((5)*(4000000/4000000.0)));
  6848  0018A8  F000               	nop	
  6849  0018AA  D000               	nop2		;2 cycle nop
  6850  0018AC  D000               	nop2		;2 cycle nop
  6851                           
  6852                           ;pantalla.h: 99: PORTDbits.RD7 = 0; PORTDbits.RD6 = 0; PORTDbits.RD5 = 1; PORTDbits.RD4 
      +                          = 1; PORTDbits.RD3 = 0;
  6853  0018AE  9E83               	bcf	3971,7,c	;volatile
  6854  0018B0  9C83               	bcf	3971,6,c	;volatile
  6855  0018B2  8A83               	bsf	3971,5,c	;volatile
  6856  0018B4  8883               	bsf	3971,4,c	;volatile
  6857  0018B6  9683               	bcf	3971,3,c	;volatile
  6858                           
  6859                           ;pantalla.h: 100: PORTDbits.RD1 = 0;
  6860  0018B8  9283               	bcf	3971,1,c	;volatile
  6861                           
  6862                           ;pantalla.h: 101: _delay((unsigned long)((5500)*(4000000/4000000.0)));
  6863  0018BA  0E08               	movlw	8
  6864  0018BC  6E04               	movwf	??_Lcd_Init& (0+255),c
  6865  0018BE  0E23               	movlw	35
  6866  0018C0                     u3497:
  6867  0018C0  2EE8               	decfsz	wreg,f,c
  6868  0018C2  D7FE               	goto	u3497
  6869  0018C4  2E04               	decfsz	??_Lcd_Init& (0+255),f,c
  6870  0018C6  D7FC               	goto	u3497
  6871  0018C8  F000               	nop	
  6872  0018CA  2A05               	incf	Lcd_Init@data,f,c
  6873  0018CC                     L18:
  6874  0018CC  0E03               	movlw	3
  6875  0018CE  6405               	cpfsgt	Lcd_Init@data,c
  6876  0018D0  D7DF               	goto	l50
  6877                           
  6878                           ;pantalla.h: 102: }
  6879                           ;pantalla.h: 103: PORTDbits.RD7 = 0; PORTDbits.RD6 = 0; PORTDbits.RD5 = 1; PORTDbits.RD4
      +                           = 0; PORTDbits.RD3 = 0; PORTDbits.RD1 = 0;
  6880  0018D2  9E83               	bcf	3971,7,c	;volatile
  6881  0018D4  9C83               	bcf	3971,6,c	;volatile
  6882  0018D6  8A83               	bsf	3971,5,c	;volatile
  6883  0018D8  9883               	bcf	3971,4,c	;volatile
  6884  0018DA  9683               	bcf	3971,3,c	;volatile
  6885  0018DC  9283               	bcf	3971,1,c	;volatile
  6886                           
  6887                           ;pantalla.h: 104: PORTDbits.RD7 = 0; PORTDbits.RD6 = 0; PORTDbits.RD5 = 1; PORTDbits.RD4
      +                           = 0; PORTDbits.RD3 = 1; PORTDbits.RD1 = 0;
  6888  0018DE  9E83               	bcf	3971,7,c	;volatile
  6889  0018E0  9C83               	bcf	3971,6,c	;volatile
  6890  0018E2  8A83               	bsf	3971,5,c	;volatile
  6891  0018E4  9883               	bcf	3971,4,c	;volatile
  6892  0018E6  8683               	bsf	3971,3,c	;volatile
  6893  0018E8  9283               	bcf	3971,1,c	;volatile
  6894                           
  6895                           ;pantalla.h: 105: _delay((unsigned long)((5)*(4000000/4000000.0)));
  6896  0018EA  F000               	nop	
  6897  0018EC  D000               	nop2		;2 cycle nop
  6898  0018EE  D000               	nop2		;2 cycle nop
  6899                           
  6900                           ;pantalla.h: 106: PORTDbits.RD7 = 0; PORTDbits.RD6 = 0; PORTDbits.RD5 = 1; PORTDbits.RD4
      +                           = 0; PORTDbits.RD3 = 0; PORTDbits.RD1 = 0;
  6901  0018F0  9E83               	bcf	3971,7,c	;volatile
  6902  0018F2  9C83               	bcf	3971,6,c	;volatile
  6903  0018F4  8A83               	bsf	3971,5,c	;volatile
  6904  0018F6  9883               	bcf	3971,4,c	;volatile
  6905  0018F8  9683               	bcf	3971,3,c	;volatile
  6906  0018FA  9283               	bcf	3971,1,c	;volatile
  6907                           
  6908                           ;pantalla.h: 107: _delay((unsigned long)((5500)*(4000000/4000000.0)));
  6909  0018FC  0E08               	movlw	8
  6910  0018FE  6E04               	movwf	??_Lcd_Init& (0+255),c
  6911  001900  0E23               	movlw	35
  6912  001902                     u3507:
  6913  001902  2EE8               	decfsz	wreg,f,c
  6914  001904  D7FE               	goto	u3507
  6915  001906  2E04               	decfsz	??_Lcd_Init& (0+255),f,c
  6916  001908  D7FC               	goto	u3507
  6917  00190A  F000               	nop	
  6918                           
  6919                           ;pantalla.h: 108: data = 40; Lcd_Cmd(data);
  6920  00190C  0E28               	movlw	40
  6921  00190E  6E05               	movwf	Lcd_Init@data,c
  6922  001910  5005               	movf	Lcd_Init@data,w,c
  6923  001912  EC2E  F00D         	call	_Lcd_Cmd
  6924                           
  6925                           ;pantalla.h: 109: data = 16; Lcd_Cmd(data);
  6926  001916  0E10               	movlw	16
  6927  001918  6E05               	movwf	Lcd_Init@data,c
  6928  00191A  5005               	movf	Lcd_Init@data,w,c
  6929  00191C  EC2E  F00D         	call	_Lcd_Cmd
  6930                           
  6931                           ;pantalla.h: 110: data = 1; Lcd_Cmd(data);
  6932  001920  0E01               	movlw	1
  6933  001922  6E05               	movwf	Lcd_Init@data,c
  6934  001924  5005               	movf	Lcd_Init@data,w,c
  6935  001926  EC2E  F00D         	call	_Lcd_Cmd
  6936                           
  6937                           ;pantalla.h: 111: data = 15; Lcd_Cmd(data);
  6938  00192A  0E0F               	movlw	15
  6939  00192C  6E05               	movwf	Lcd_Init@data,c
  6940  00192E  5005               	movf	Lcd_Init@data,w,c
  6941  001930  EC2E  F00D         	call	_Lcd_Cmd
  6942  001934  0012               	return	
  6943  001936                     __end_of_Lcd_Init:
  6944                           	opt stack 0
  6945                           tblptru	equ	0xFF8
  6946                           tblptrh	equ	0xFF7
  6947                           tblptrl	equ	0xFF6
  6948                           tablat	equ	0xFF5
  6949                           prodh	equ	0xFF4
  6950                           prodl	equ	0xFF3
  6951                           indf0	equ	0xFEF
  6952                           postinc0	equ	0xFEE
  6953                           fsr0h	equ	0xFEA
  6954                           fsr0l	equ	0xFE9
  6955                           wreg	equ	0xFE8
  6956                           indf1	equ	0xFE7
  6957                           postinc1	equ	0xFE6
  6958                           postdec1	equ	0xFE5
  6959                           fsr1h	equ	0xFE2
  6960                           fsr1l	equ	0xFE1
  6961                           indf2	equ	0xFDF
  6962                           postinc2	equ	0xFDE
  6963                           fsr2h	equ	0xFDA
  6964                           fsr2l	equ	0xFD9
  6965                           status	equ	0xFD8
  6966                           
  6967 ;; *************** function _Lcd_Cmd *****************
  6968 ;; Defined at:
  6969 ;;		line 171 in file "pantalla.h"
  6970 ;; Parameters:    Size  Location     Type
  6971 ;;  data            1    wreg     unsigned char 
  6972 ;; Auto vars:     Size  Location     Type
  6973 ;;  data            1    2[COMRAM] unsigned char 
  6974 ;; Return value:  Size  Location     Type
  6975 ;;		None               void
  6976 ;; Registers used:
  6977 ;;		wreg, status,2, status,0
  6978 ;; Tracked objects:
  6979 ;;		On entry : 0/0
  6980 ;;		On exit  : 0/0
  6981 ;;		Unchanged: 0/0
  6982 ;; Data sizes:     COMRAM   BANK0   BANK1   BANK2   BANK3   BANK4   BANK5   BANK6   BANK7
  6983 ;;      Params:         0       0       0       0       0       0       0       0       0
  6984 ;;      Locals:         1       0       0       0       0       0       0       0       0
  6985 ;;      Temps:          2       0       0       0       0       0       0       0       0
  6986 ;;      Totals:         3       0       0       0       0       0       0       0       0
  6987 ;;Total ram usage:        3 bytes
  6988 ;; Hardware stack levels used:    1
  6989 ;; This function calls:
  6990 ;;		Nothing
  6991 ;; This function is called by:
  6992 ;;		_Lcd_Init
  6993 ;;		_Lcd_Out
  6994 ;;		_Lcd_Out2
  6995 ;;		_lcd_goto
  6996 ;;		_Frecuencia
  6997 ;;		_Ciclo
  6998 ;;		_Imprimir_pantalla
  6999 ;;		_main
  7000 ;;		_Presentacion
  7001 ;;		_Menu
  7002 ;;		_Menu_Pwm
  7003 ;;		_Prueba2
  7004 ;; This function uses a non-reentrant model
  7005 ;;
  7006                           
  7007                           	psect	text29
  7008  001A5C                     __ptext29:
  7009                           	opt stack 0
  7010  001A5C                     _Lcd_Cmd:
  7011                           	opt stack 29
  7012                           
  7013                           ;incstack = 0
  7014                           ;Lcd_Cmd@data stored from wreg
  7015  001A5C  6E03               	movwf	Lcd_Cmd@data,c
  7016                           
  7017                           ;pantalla.h: 172: PORTDbits.RD3 = 0; PORTDbits.RD1 = 0;
  7018  001A5E  9683               	bcf	3971,3,c	;volatile
  7019  001A60  9283               	bcf	3971,1,c	;volatile
  7020                           
  7021                           ;pantalla.h: 173: PORTDbits.RD7 = (data & 0b10000000)>>7; PORTDbits.RD6 = (data & 0b0100
      +                          0000)>>6;
  7022  001A62  6A01               	clrf	??_Lcd_Cmd& (0+255),c
  7023  001A64  AE03               	btfss	Lcd_Cmd@data,7,c
  7024  001A66  D001               	bra	u1545
  7025  001A68  2A01               	incf	??_Lcd_Cmd& (0+255),f,c
  7026  001A6A                     u1545:
  7027  001A6A  0E01               	movlw	1
  7028  001A6C  1601               	andwf	??_Lcd_Cmd,f,c
  7029  001A6E  3201               	rrcf	??_Lcd_Cmd,f,c
  7030  001A70  3201               	rrcf	??_Lcd_Cmd,f,c
  7031  001A72  5083               	movf	3971,w,c	;volatile
  7032  001A74  1801               	xorwf	??_Lcd_Cmd,w,c
  7033  001A76  0B7F               	andlw	-129
  7034  001A78  1801               	xorwf	??_Lcd_Cmd,w,c
  7035  001A7A  6E83               	movwf	3971,c	;volatile
  7036  001A7C  C003  F001         	movff	Lcd_Cmd@data,??_Lcd_Cmd
  7037  001A80  0E06               	movlw	6
  7038  001A82  6E02               	movwf	(??_Lcd_Cmd+1)& (0+255),c
  7039  001A84                     u1555:
  7040  001A84  90D8               	bcf	status,0,c
  7041  001A86  3201               	rrcf	??_Lcd_Cmd,f,c
  7042  001A88  2E02               	decfsz	(??_Lcd_Cmd+1)& (0+255),f,c
  7043  001A8A  D7FC               	goto	u1555
  7044  001A8C  0E01               	movlw	1
  7045  001A8E  1601               	andwf	??_Lcd_Cmd,f,c
  7046  001A90  3A01               	swapf	??_Lcd_Cmd,f,c
  7047  001A92  4601               	rlncf	??_Lcd_Cmd,f,c
  7048  001A94  4601               	rlncf	??_Lcd_Cmd,f,c
  7049  001A96  5083               	movf	3971,w,c	;volatile
  7050  001A98  1801               	xorwf	??_Lcd_Cmd,w,c
  7051  001A9A  0BBF               	andlw	-65
  7052  001A9C  1801               	xorwf	??_Lcd_Cmd,w,c
  7053  001A9E  6E83               	movwf	3971,c	;volatile
  7054                           
  7055                           ;pantalla.h: 174: PORTDbits.RD5 = (data & 0b00100000)>>5; PORTDbits.RD4 = (data & 0b0001
      +                          0000)>>4;
  7056  001AA0  C003  F001         	movff	Lcd_Cmd@data,??_Lcd_Cmd
  7057  001AA4  0E05               	movlw	5
  7058  001AA6  6E02               	movwf	(??_Lcd_Cmd+1)& (0+255),c
  7059  001AA8                     u1565:
  7060  001AA8  90D8               	bcf	status,0,c
  7061  001AAA  3201               	rrcf	??_Lcd_Cmd,f,c
  7062  001AAC  2E02               	decfsz	(??_Lcd_Cmd+1)& (0+255),f,c
  7063  001AAE  D7FC               	goto	u1565
  7064  001AB0  0E01               	movlw	1
  7065  001AB2  1601               	andwf	??_Lcd_Cmd,f,c
  7066  001AB4  3A01               	swapf	??_Lcd_Cmd,f,c
  7067  001AB6  4601               	rlncf	??_Lcd_Cmd,f,c
  7068  001AB8  5083               	movf	3971,w,c	;volatile
  7069  001ABA  1801               	xorwf	??_Lcd_Cmd,w,c
  7070  001ABC  0BDF               	andlw	-33
  7071  001ABE  1801               	xorwf	??_Lcd_Cmd,w,c
  7072  001AC0  6E83               	movwf	3971,c	;volatile
  7073  001AC2  C003  F001         	movff	Lcd_Cmd@data,??_Lcd_Cmd
  7074  001AC6  3A01               	swapf	??_Lcd_Cmd,f,c
  7075  001AC8  0E0F               	movlw	15
  7076  001ACA  1601               	andwf	??_Lcd_Cmd,f,c
  7077  001ACC  0E01               	movlw	1
  7078  001ACE  1601               	andwf	??_Lcd_Cmd,f,c
  7079  001AD0  3A01               	swapf	??_Lcd_Cmd,f,c
  7080  001AD2  5083               	movf	3971,w,c	;volatile
  7081  001AD4  1801               	xorwf	??_Lcd_Cmd,w,c
  7082  001AD6  0BEF               	andlw	-17
  7083  001AD8  1801               	xorwf	??_Lcd_Cmd,w,c
  7084  001ADA  6E83               	movwf	3971,c	;volatile
  7085                           
  7086                           ;pantalla.h: 175: _delay((unsigned long)((10)*(4000000/4000000.0)));
  7087  001ADC  0E03               	movlw	3
  7088  001ADE                     u3517:
  7089  001ADE  2EE8               	decfsz	wreg,f,c
  7090  001AE0  D7FE               	goto	u3517
  7091  001AE2  F000               	nop	
  7092                           
  7093                           ;pantalla.h: 176: PORTDbits.RD3 = 1; _delay((unsigned long)((5)*(4000000/4000000.0))); P
      +                          ORTDbits.RD3 = 0;
  7094  001AE4  8683               	bsf	3971,3,c	;volatile
  7095  001AE6  F000               	nop	
  7096  001AE8  D000               	nop2		;2 cycle nop
  7097  001AEA  D000               	nop2		;2 cycle nop
  7098  001AEC  9683               	bcf	3971,3,c	;volatile
  7099                           
  7100                           ;pantalla.h: 177: PORTDbits.RD7 = (data & 0b00001000)>>3; PORTDbits.RD6 = (data & 0b0000
      +                          0100)>>2;
  7101  001AEE  C003  F001         	movff	Lcd_Cmd@data,??_Lcd_Cmd
  7102  001AF2  90D8               	bcf	status,0,c
  7103  001AF4  3201               	rrcf	??_Lcd_Cmd,f,c
  7104  001AF6  90D8               	bcf	status,0,c
  7105  001AF8  3201               	rrcf	??_Lcd_Cmd,f,c
  7106  001AFA  90D8               	bcf	status,0,c
  7107  001AFC  3201               	rrcf	??_Lcd_Cmd,f,c
  7108  001AFE  0E01               	movlw	1
  7109  001B00  1601               	andwf	??_Lcd_Cmd,f,c
  7110  001B02  3201               	rrcf	??_Lcd_Cmd,f,c
  7111  001B04  3201               	rrcf	??_Lcd_Cmd,f,c
  7112  001B06  5083               	movf	3971,w,c	;volatile
  7113  001B08  1801               	xorwf	??_Lcd_Cmd,w,c
  7114  001B0A  0B7F               	andlw	-129
  7115  001B0C  1801               	xorwf	??_Lcd_Cmd,w,c
  7116  001B0E  6E83               	movwf	3971,c	;volatile
  7117  001B10  C003  F001         	movff	Lcd_Cmd@data,??_Lcd_Cmd
  7118  001B14  90D8               	bcf	status,0,c
  7119  001B16  3201               	rrcf	??_Lcd_Cmd,f,c
  7120  001B18  90D8               	bcf	status,0,c
  7121  001B1A  3201               	rrcf	??_Lcd_Cmd,f,c
  7122  001B1C  0E01               	movlw	1
  7123  001B1E  1601               	andwf	??_Lcd_Cmd,f,c
  7124  001B20  3A01               	swapf	??_Lcd_Cmd,f,c
  7125  001B22  4601               	rlncf	??_Lcd_Cmd,f,c
  7126  001B24  4601               	rlncf	??_Lcd_Cmd,f,c
  7127  001B26  5083               	movf	3971,w,c	;volatile
  7128  001B28  1801               	xorwf	??_Lcd_Cmd,w,c
  7129  001B2A  0BBF               	andlw	-65
  7130  001B2C  1801               	xorwf	??_Lcd_Cmd,w,c
  7131  001B2E  6E83               	movwf	3971,c	;volatile
  7132                           
  7133                           ;pantalla.h: 178: PORTDbits.RD5 = (data & 0b00000010)>>1; PORTDbits.RD4 = (data & 0b0000
      +                          0001);
  7134  001B30  C003  F001         	movff	Lcd_Cmd@data,??_Lcd_Cmd
  7135  001B34  90D8               	bcf	status,0,c
  7136  001B36  3201               	rrcf	??_Lcd_Cmd,f,c
  7137  001B38  0E01               	movlw	1
  7138  001B3A  1601               	andwf	??_Lcd_Cmd,f,c
  7139  001B3C  3A01               	swapf	??_Lcd_Cmd,f,c
  7140  001B3E  4601               	rlncf	??_Lcd_Cmd,f,c
  7141  001B40  5083               	movf	3971,w,c	;volatile
  7142  001B42  1801               	xorwf	??_Lcd_Cmd,w,c
  7143  001B44  0BDF               	andlw	-33
  7144  001B46  1801               	xorwf	??_Lcd_Cmd,w,c
  7145  001B48  6E83               	movwf	3971,c	;volatile
  7146  001B4A  C003  F001         	movff	Lcd_Cmd@data,??_Lcd_Cmd
  7147  001B4E  0E01               	movlw	1
  7148  001B50  1601               	andwf	??_Lcd_Cmd,f,c
  7149  001B52  3A01               	swapf	??_Lcd_Cmd,f,c
  7150  001B54  5083               	movf	3971,w,c	;volatile
  7151  001B56  1801               	xorwf	??_Lcd_Cmd,w,c
  7152  001B58  0BEF               	andlw	-17
  7153  001B5A  1801               	xorwf	??_Lcd_Cmd,w,c
  7154  001B5C  6E83               	movwf	3971,c	;volatile
  7155                           
  7156                           ;pantalla.h: 179: _delay((unsigned long)((10)*(4000000/4000000.0)));;
  7157  001B5E  0E03               	movlw	3
  7158  001B60                     u3527:
  7159  001B60  2EE8               	decfsz	wreg,f,c
  7160  001B62  D7FE               	goto	u3527
  7161  001B64  F000               	nop	
  7162                           
  7163                           ;pantalla.h: 180: PORTDbits.RD3 = 1; _delay((unsigned long)((5)*(4000000/4000000.0))); P
      +                          ORTDbits.RD3 = 0;
  7164  001B66  8683               	bsf	3971,3,c	;volatile
  7165  001B68  F000               	nop	
  7166  001B6A  D000               	nop2		;2 cycle nop
  7167  001B6C  D000               	nop2		;2 cycle nop
  7168  001B6E  9683               	bcf	3971,3,c	;volatile
  7169                           
  7170                           ;pantalla.h: 181: _delay((unsigned long)((5500)*(4000000/4000000.0)));
  7171  001B70  0E08               	movlw	8
  7172  001B72  6E01               	movwf	??_Lcd_Cmd& (0+255),c
  7173  001B74  0E23               	movlw	35
  7174  001B76                     u3537:
  7175  001B76  2EE8               	decfsz	wreg,f,c
  7176  001B78  D7FE               	goto	u3537
  7177  001B7A  2E01               	decfsz	??_Lcd_Cmd& (0+255),f,c
  7178  001B7C  D7FC               	goto	u3537
  7179  001B7E  F000               	nop	
  7180  001B80  0012               	return	
  7181  001B82                     __end_of_Lcd_Cmd:
  7182                           	opt stack 0
  7183                           tblptru	equ	0xFF8
  7184                           tblptrh	equ	0xFF7
  7185                           tblptrl	equ	0xFF6
  7186                           tablat	equ	0xFF5
  7187                           prodh	equ	0xFF4
  7188                           prodl	equ	0xFF3
  7189                           indf0	equ	0xFEF
  7190                           postinc0	equ	0xFEE
  7191                           fsr0h	equ	0xFEA
  7192                           fsr0l	equ	0xFE9
  7193                           wreg	equ	0xFE8
  7194                           indf1	equ	0xFE7
  7195                           postinc1	equ	0xFE6
  7196                           postdec1	equ	0xFE5
  7197                           fsr1h	equ	0xFE2
  7198                           fsr1l	equ	0xFE1
  7199                           indf2	equ	0xFDF
  7200                           postinc2	equ	0xFDE
  7201                           fsr2h	equ	0xFDA
  7202                           fsr2l	equ	0xFD9
  7203                           status	equ	0xFD8
  7204                           tblptru	equ	0xFF8
  7205                           tblptrh	equ	0xFF7
  7206                           tblptrl	equ	0xFF6
  7207                           tablat	equ	0xFF5
  7208                           prodh	equ	0xFF4
  7209                           prodl	equ	0xFF3
  7210                           indf0	equ	0xFEF
  7211                           postinc0	equ	0xFEE
  7212                           fsr0h	equ	0xFEA
  7213                           fsr0l	equ	0xFE9
  7214                           wreg	equ	0xFE8
  7215                           indf1	equ	0xFE7
  7216                           postinc1	equ	0xFE6
  7217                           postdec1	equ	0xFE5
  7218                           fsr1h	equ	0xFE2
  7219                           fsr1l	equ	0xFE1
  7220                           indf2	equ	0xFDF
  7221                           postinc2	equ	0xFDE
  7222                           fsr2h	equ	0xFDA
  7223                           fsr2l	equ	0xFD9
  7224                           status	equ	0xFD8
  7225                           
  7226                           	psect	rparam
  7227  0000                     tblptru	equ	0xFF8
  7228                           tblptrh	equ	0xFF7
  7229                           tblptrl	equ	0xFF6
  7230                           tablat	equ	0xFF5
  7231                           prodh	equ	0xFF4
  7232                           prodl	equ	0xFF3
  7233                           indf0	equ	0xFEF
  7234                           postinc0	equ	0xFEE
  7235                           fsr0h	equ	0xFEA
  7236                           fsr0l	equ	0xFE9
  7237                           wreg	equ	0xFE8
  7238                           indf1	equ	0xFE7
  7239                           postinc1	equ	0xFE6
  7240                           postdec1	equ	0xFE5
  7241                           fsr1h	equ	0xFE2
  7242                           fsr1l	equ	0xFE1
  7243                           indf2	equ	0xFDF
  7244                           postinc2	equ	0xFDE
  7245                           fsr2h	equ	0xFDA
  7246                           fsr2l	equ	0xFD9
  7247                           status	equ	0xFD8


Data Sizes:
    Strings     229
    Constant    0
    Data        262
    BSS         62
    Persistent  0
    Stack       0

Auto Spaces:
    Space          Size  Autos    Used
    COMRAM           95     61      95
    BANK0           160    102     152
    BANK1           256      0     240
    BANK2           256      0       0
    BANK3           256      0       0
    BANK4           256      0       0
    BANK5           256      0       0
    BANK6           256      0       0
    BANK7           256      0       0

Pointer List with Targets:

    atoi@s	PTR const unsigned char  size(2) Largest target is 10
		 -> ciclo(BANK0[10]), frecuencia(BANK0[10]), 

    Conv_Entero@conv	PTR unsigned char  size(2) Largest target is 10
		 -> cadena(COMRAM[10]), 

    Conv_Entero@punteroActual	PTR unsigned char  size(2) Largest target is 21
		 -> Conv_Entero@convTemp(COMRAM[21]), 

    Imprimir_pantalla@N	PTR unsigned char  size(2) Largest target is 10
		 -> ciclo(BANK0[10]), frecuencia(BANK0[10]), 

    Tec@cadena	PTR unsigned char  size(2) Largest target is 10
		 -> ciclo(BANK0[10]), frecuencia(BANK0[10]), 

    Ciclo@ciclo	PTR unsigned char  size(2) Largest target is 10
		 -> ciclo(BANK0[10]), 

    Frecuencia@frecuencia	PTR unsigned char  size(2) Largest target is 10
		 -> frecuencia(BANK0[10]), 

    Lcd_Out2@buffer	PTR unsigned char  size(2) Largest target is 16
		 -> STR_43(CODE[6]), STR_42(CODE[2]), STR_41(CODE[8]), STR_40(CODE[3]), 
		 -> STR_39(CODE[6]), STR_38(CODE[9]), STR_37(CODE[14]), STR_36(CODE[12]), 
		 -> STR_35(CODE[9]), STR_34(CODE[11]), STR_33(CODE[11]), STR_32(CODE[11]), 
		 -> STR_31(CODE[11]), STR_30(CODE[11]), STR_29(CODE[11]), STR_28(CODE[11]), 
		 -> STR_27(CODE[11]), STR_26(CODE[11]), STR_25(CODE[11]), STR_24(CODE[11]), 
		 -> STR_23(CODE[11]), STR_22(CODE[14]), STR_21(CODE[12]), STR_20(CODE[12]), 
		 -> STR_19(CODE[10]), STR_18(CODE[15]), STR_17(CODE[11]), STR_16(CODE[16]), 
		 -> STR_15(CODE[2]), STR_14(CODE[8]), STR_13(CODE[3]), STR_12(CODE[6]), 
		 -> ciclo(BANK0[10]), frecuencia(BANK0[10]), STR_11(CODE[14]), STR_10(CODE[12]), 
		 -> STR_9(CODE[12]), STR_8(CODE[9]), STR_7(CODE[14]), STR_6(CODE[12]), 
		 -> STR_5(CODE[12]), STR_4(CODE[10]), STR_3(CODE[15]), STR_2(CODE[11]), 
		 -> STR_1(CODE[16]), 

    Lcd_Out@buffer	PTR const unsigned char  size(2) Largest target is 10
		 -> cadena(COMRAM[10]), 


Critical Paths under _main in COMRAM

    _main->_Conv_Entero
    _main->_SENO_GENERAR_2
    _atoi->___wmul
    _PWM_generar->___lldiv
    _Lcd_Out->_Lcd_Chr_CP
    _Lcd_Out->_Lcd_Cmd
    _Imprimir_pantalla->_Lcd_Out2
    _Frecuencia->_Tec
    _Conv_Entero->___aldiv
    _Ciclo->_Tec
    _Tec->_lcd_goto
    _lcd_goto->_Lcd_Cmd
    _Recuperar->_READ_SWITCHES
    _Lcd_Out2->_Lcd_Chr_CP
    _Lcd_Out2->_Lcd_Cmd
    _Lcd_Init->_Lcd_Cmd

Critical Paths under _main in BANK0

    _main->_SENO_GENERAR_3

Critical Paths under _main in BANK1

    None.

Critical Paths under _main in BANK2

    None.

Critical Paths under _main in BANK3

    None.

Critical Paths under _main in BANK4

    None.

Critical Paths under _main in BANK5

    None.

Critical Paths under _main in BANK6

    None.

Critical Paths under _main in BANK7

    None.

Call Graph Tables:

 ---------------------------------------------------------------------------------
 (Depth) Function   	        Calls       Base Space   Used Autos Params    Refs
 ---------------------------------------------------------------------------------
 (0) _main                                                 6     6      0   37732
                                             55 COMRAM     6     6      0
                              _Ciclo
                        _Conv_Entero
                         _Frecuencia
                  _Imprimir_pantalla
                            _Lcd_Cmd
                           _Lcd_Init
                            _Lcd_Out
                           _Lcd_Out2
                        _PWM_generar
                          _Recuperar
                     _SENO_GENERAR_1
                     _SENO_GENERAR_2
                     _SENO_GENERAR_3
               _TRIANGULAR_GENERAR_1
               _TRIANGULAR_GENERAR_2
               _TRIANGULAR_GENERAR_3
                               _atoi
                        _int_teclado
                              _tm_1s
 ---------------------------------------------------------------------------------
 (1) _int_teclado                                          0     0      0       0
 ---------------------------------------------------------------------------------
 (1) _atoi                                                 7     5      2     839
                                              6 COMRAM     7     5      2
                             ___wmul
                            _isdigit
 ---------------------------------------------------------------------------------
 (2) _isdigit                                              3     3      0      68
                                              0 COMRAM     3     3      0
 ---------------------------------------------------------------------------------
 (2) ___wmul                                               6     2      4     287
                                              0 COMRAM     6     2      4
 ---------------------------------------------------------------------------------
 (1) _TRIANGULAR_GENERAR_3                                46    46      0      92
                                              0 COMRAM    45    45      0
 ---------------------------------------------------------------------------------
 (1) _TRIANGULAR_GENERAR_2                                36    36      0      92
                                              0 COMRAM    35    35      0
 ---------------------------------------------------------------------------------
 (1) _TRIANGULAR_GENERAR_1                                26    26      0      92
                                              0 COMRAM    25    25      0
 ---------------------------------------------------------------------------------
 (1) _SENO_GENERAR_3                                     106   106      0      92
                                              0 COMRAM     3     3      0
                                              0 BANK0    102   102      0
 ---------------------------------------------------------------------------------
 (1) _SENO_GENERAR_2                                      56    56      0      92
                                              0 COMRAM    55    55      0
 ---------------------------------------------------------------------------------
 (1) _SENO_GENERAR_1                                      26    26      0      92
                                              0 COMRAM    25    25      0
 ---------------------------------------------------------------------------------
 (1) _PWM_generar                                         20    16      4    1536
                                             13 COMRAM    20    16      4
                            ___lldiv
                             ___lmul
 ---------------------------------------------------------------------------------
 (2) ___lldiv                                             13     5      8     418
                                              0 COMRAM    13     5      8
 ---------------------------------------------------------------------------------
 (1) _Lcd_Out                                              5     2      3    1045
                                              3 COMRAM     5     2      3
                         _Lcd_Chr_CP
                            _Lcd_Cmd
 ---------------------------------------------------------------------------------
 (1) _Imprimir_pantalla                                    4     2      2    6959
                                              8 COMRAM     4     2      2
                            _Lcd_Cmd
                           _Lcd_Init
                           _Lcd_Out2
                          _Recuperar
                              _tm_1s
 ---------------------------------------------------------------------------------
 (1) _tm_1s                                                1     1      0       0
                                              0 COMRAM     1     1      0
 ---------------------------------------------------------------------------------
 (1) _Frecuencia                                           2     0      2    8523
                                             20 COMRAM     2     0      2
                            _Lcd_Cmd
                           _Lcd_Init
                           _Lcd_Out2
                                _Tec
 ---------------------------------------------------------------------------------
 (1) _Conv_Entero                                         41    35      6    2273
                                             14 COMRAM    41    35      6
                            ___aldiv
                            ___almod
                             ___lmul
 ---------------------------------------------------------------------------------
 (2) ___lmul                                              12     4      8     450
                                              0 COMRAM    12     4      8
 ---------------------------------------------------------------------------------
 (2) ___almod                                             10     2      8     424
                                              0 COMRAM    10     2      8
 ---------------------------------------------------------------------------------
 (2) ___aldiv                                             14     6      8     428
                                              0 COMRAM    14     6      8
 ---------------------------------------------------------------------------------
 (1) _Ciclo                                                2     0      2    8523
                                             20 COMRAM     2     0      2
                            _Lcd_Cmd
                           _Lcd_Init
                           _Lcd_Out2
                                _Tec
 ---------------------------------------------------------------------------------
 (2) _Tec                                                 10     8      2    1718
                                             10 COMRAM    10     8      2
                         _Lcd_Chr_CP
                          _Recuperar
                           _lcd_goto
 ---------------------------------------------------------------------------------
 (3) _lcd_goto                                             7     3      4     824
                                              3 COMRAM     7     3      4
                            _Lcd_Cmd
 ---------------------------------------------------------------------------------
 (1) _Recuperar                                            1     1      0      24
                                              1 COMRAM     1     1      0
                      _READ_SWITCHES
 ---------------------------------------------------------------------------------
 (2) _READ_SWITCHES                                        1     1      0       0
                                              0 COMRAM     1     1      0
 ---------------------------------------------------------------------------------
 (1) _Lcd_Out2                                             5     2      3    6165
                                              3 COMRAM     5     2      3
                         _Lcd_Chr_CP
                            _Lcd_Cmd
 ---------------------------------------------------------------------------------
 (2) _Lcd_Chr_CP                                           3     3      0     176
                                              0 COMRAM     3     3      0
 ---------------------------------------------------------------------------------
 (1) _Lcd_Init                                             2     2      0     314
                                              3 COMRAM     2     2      0
                            _Lcd_Cmd
 ---------------------------------------------------------------------------------
 (2) _Lcd_Cmd                                              3     3      0     176
                                              0 COMRAM     3     3      0
 ---------------------------------------------------------------------------------
 Estimated maximum stack depth 3
 ---------------------------------------------------------------------------------

 Call Graph Graphs:

 _main (ROOT)
   _Ciclo
     _Lcd_Cmd
     _Lcd_Init
       _Lcd_Cmd
     _Lcd_Out2
       _Lcd_Chr_CP
       _Lcd_Cmd
     _Tec
       _Lcd_Chr_CP
       _Recuperar
         _READ_SWITCHES
       _lcd_goto
         _Lcd_Cmd
   _Conv_Entero
     ___aldiv
     ___almod
     ___lmul
   _Frecuencia
     _Lcd_Cmd
     _Lcd_Init
       _Lcd_Cmd
     _Lcd_Out2
       _Lcd_Chr_CP
       _Lcd_Cmd
     _Tec
       _Lcd_Chr_CP
       _Recuperar
         _READ_SWITCHES
       _lcd_goto
         _Lcd_Cmd
   _Imprimir_pantalla
     _Lcd_Cmd
     _Lcd_Init
       _Lcd_Cmd
     _Lcd_Out2
       _Lcd_Chr_CP
       _Lcd_Cmd
     _Recuperar
       _READ_SWITCHES
     _tm_1s
   _Lcd_Cmd
   _Lcd_Init
     _Lcd_Cmd
   _Lcd_Out
     _Lcd_Chr_CP
     _Lcd_Cmd
   _Lcd_Out2
     _Lcd_Chr_CP
     _Lcd_Cmd
   _PWM_generar
     ___lldiv
     ___lmul
   _Recuperar
     _READ_SWITCHES
   _SENO_GENERAR_1
   _SENO_GENERAR_2
   _SENO_GENERAR_3
   _TRIANGULAR_GENERAR_1
   _TRIANGULAR_GENERAR_2
   _TRIANGULAR_GENERAR_3
   _atoi
     ___wmul
     _isdigit
   _int_teclado
   _tm_1s

 Address spaces:
Name               Size   Autos  Total    Cost      Usage
BIGRAM             7FF      0       0      21        0.0%
EEDATA             100      0       0       0        0.0%
BITBANK7           100      0       0      19        0.0%
BANK7              100      0       0      20        0.0%
BITBANK6           100      0       0      17        0.0%
BANK6              100      0       0      18        0.0%
BITBANK5           100      0       0      15        0.0%
BANK5              100      0       0      16        0.0%
BITBANK4           100      0       0      13        0.0%
BANK4              100      0       0      14        0.0%
BITBANK3           100      0       0      11        0.0%
BANK3              100      0       0      12        0.0%
BITBANK2           100      0       0       9        0.0%
BANK2              100      0       0      10        0.0%
BITBANK1           100      0       0       7        0.0%
BANK1              100      0      F0       8       93.8%
BITBANK0            A0      0       0       4        0.0%
BANK0               A0     66      98       5       95.0%
BITCOMRAM           5F      0       0       0        0.0%
COMRAM              5F     3D      5F       1      100.0%
BITSFR_1             0      0       0      40        0.0%
SFR_1                0      0       0      40        0.0%
BITSFR               0      0       0      40        0.0%
SFR                  0      0       0      40        0.0%
STACK                0      0       0       2        0.0%
NULL                 0      0       0       0        0.0%
ABS                  0      0     1E7       6        0.0%
DATA                 0      0     1E7       3        0.0%
CODE                 0      0       0       0        0.0%


Microchip Technology PIC18 Macro Assembler V1.32 build 58300 
Symbol Table                                                                                   Thu Jul 11 06:37:51 2019

                               _a 005E                                 _d 003E  
                               _e 0040                                 _f 0042  
                               _g 0044                                 _q 0046  
                               _r 0048                                 _s 004A  
                               _t 004C                                 _w 004E  
                              l50 1890               ___wmul@multiplicand 0003  
                    __CFG_CP0$OFF 000000                      __CFG_CP1$OFF 000000  
                    __CFG_CP2$OFF 000000                      __CFG_CP3$OFF 000000  
               PWM_generar@PR2cal 001A                               l300 13DE  
                             l301 13D6                               l320 1472  
                             l312 143A                               l304 13FA  
                             l321 146A                               l313 1432  
                             l305 13F2                               l332 14CE  
                             l324 148E                               l316 1456  
                             l308 1416                               l341 14FE  
                             l333 14C6                               l325 1486  
                             l317 144E                               l309 140E  
                             l336 14EA                               l328 14B2  
                             l280 1342                               l337 14E2  
                             l329 14AA                               l292 139E  
                             l284 1366                               l293 1396  
                             l285 135E                               l279 134A  
                             l296 13C2                               l288 1382  
                             l297 13BA                               l289 137A  
                             l617 1F0A                               l904 20A2  
                    __CFG_CPB$OFF 000000                               _PR2 000FBB  
                    __CFG_CPD$OFF 000000                               _Tec 1936  
                             _cad 00C6                               _key 0053  
                             wreg 000FE8                    _SENO_GENERAR_1 2342  
                  _SENO_GENERAR_2 22DA                    _SENO_GENERAR_3 212E  
                    __CFG_LVP$OFF 000000                              ?_Tec 000B  
                            l3140 091E                              l2510 2476  
                            l3134 0908                              l2504 2464  
                            l3224 0A76                              l2506 246A  
                            l2514 247E                              l2610 19B2  
                            l3322 0BE8                              l3314 0BCE  
                            l3330 0C08                              l2508 2470  
                            l2516 24A8                              l3324 0BF0  
                            l2702 1C6C                              l3270 0B2C  
                            l3262 0B12                              l3174 09BC  
                            l2632 1A12                              l2616 19CC  
                            l2624 19FA                              l2608 19AC  
                            l3504 0EC2                              l3416 0D46  
                            l3408 0D2C                              l3344 0C32  
                            l3328 0C00                              l3272 0B34  
                            l3184 09E2                              l3176 09C4  
                            l2570 1F1E                              l2466 1506  
                            l2730 1E14                              l2722 1DE0  
                            l2714 1DA2                              l3522 0F28  
                            l3506 0ECA                              l3530 0F48  
                            l3442 0DA4                              l3434 0D8A  
                            l3418 0D4E                              l3450 0DC4  
                            l3178 09CC                              l2572 1F24  
                            l2580 1F4C                              l2644 1A4A  
                            l2724 1DEC                              l3516 0F12  
                            l3524 0F30                              l3444 0DAC  
                            l2582 1F54                              l2574 1F2A  
                            l2670 1BB6                              l2726 1DF0  
                            l2734 1E22                              l2718 1DCE  
                            l2654 241C                              l2750 258A  
                            l2830 1E50                              l3454 0DD4  
                            l3390 0CE8                              l3382 0CCE  
                            l2568 1F18                              l2592 1966  
                            l2760 2054                              l2904 117A  
                            l2840 1E8E                              l3608 10E8  
                            l3560 103C                              l3528 0F40  
                            l3472 0E22                              l3448 0DBC  
                            l3392 0CF0                              l3296 0B8A  
                            l3288 0B70                              l2586 1F7C  
                            l2578 1F32                              l2682 1C08  
                            l2738 1E38                              l2658 2430  
                            l2762 2060                              l3554 1026  
                            l3562 1044                              l3570 1062  
                            l3298 0B92                              l2684 1C14  
                            l2676 1BE6                              l2780 23B4  
                            l2772 2094                              l2764 2064  
                            l2908 11CA                              l2844 1E9E  
                            l2828 1E4C                              l2694 1C48  
                            l2686 1C18                              l2782 23BA  
                            l2790 23E2                              l3494 0EA4  
                            l2880 1648                              l2792 23EA  
                            l2784 23C0                              l2848 1ED8  
                            l3576 1078                              l3568 105A  
                            l2698 1C56                              l2866 158A  
                            l2778 23AE                              l3594 10BC  
                            l3578 1080                              l2884 1688  
                            l2796 23FC                              l2788 23C8  
                            l2888 16AE                              STR_1 0801  
                            STR_2 08A6                              STR_3 0811  
                            STR_4 08B1                              STR_5 0856  
                            STR_6 0862                              STR_7 083C  
                            STR_8 08C4                              STR_9 086E  
                            _LATA 000F89                              u2135 1D8A  
                            u2145 1DBA                              u2401 2280  
                            u2075 1B9E                              u2315 1552  
                            u3107 22CE                              u2085 1BCE  
                            u3117 2194                              u2350 1160  
                            u2335 1632                              u3207 1FFE  
                            u3127 2336                              u2431 2218  
                            u2360 11B6                              u1545 1A6A  
                            u3217 200C                              u3137 239E  
                            u2521 22E8                              u1555 1A84  
                            u3307 13E8                              u3227 201A  
                            u3147 1FAA                              u2355 1156  
                            u1565 1AA8                              u3317 1404  
                            u3237 2028                              u3157 1FB8  
                            u2365 11AC                              u2461 21B0  
                            u3077 099E                              u2390 1306  
                            u3407 1764                              u3327 1428  
                            u3247 1338                              u3167 1FC6  
                            u2551 213C                              u3087 21FE  
                            u3417 17E6                              u1905 170A  
                            u3337 1444                              u3257 1354  
                            u3177 1FD4                              u2385 125A  
                            u3097 2266                              u3507 1902  
                            u3427 1802                              u1915 172E  
                            u3347 1460                              u3267 1370  
                            u3187 1FE2                              u2395 12FC  
                            u2491 2350                              u1940 1F74  
                            u3517 1ADE                              u3437 1830  
                            u3357 147C                              u3277 138C  
                            u3197 1FF0                              u1950 1F9C  
                            u3527 1B60                              u3447 1840  
                            u3367 14A0                              u3287 13B0  
                            u3537 1B76                              u3457 1850  
                            u3377 14BC                              u3297 13CC  
                            u3467 1860                              u1947 1F6A  
                            u3387 14D8                              u3477 1870  
                            u1957 1F92                              u3397 14F4  
                            u3487 1880                              u1895 16F0  
                            u3497 18C0                              _TMR2 000FBC  
                            Tec@i 000D                              Tec@j 0012  
                            _fila 0052                              _atoi 1E4A  
                     _PWM_generar 10F2                              _main 08E8  
                            fsr0h 000FEA                              indf0 000FEF  
                            fsr0l 000FE9                              fsr2h 000FDA  
                            indf1 000FE7                              fsr1l 000FE1  
                            indf2 000FDF                              fsr2l 000FD9  
                   __CFG_BORV$190 000000                      lcd_goto@data 000A  
                            prodh 000FF4                              prodl 000FF3  
                            start 0000                     __CFG_IESO$OFF 000000  
                 __end_of_Lcd_Cmd 1B82                   __end_of_Lcd_Out 240C  
                   __CFG_MCLRE$ON 000000                        _Lcd_Chr_CP 16E2  
                           ??_Tec 000D                    Lcd_Out2@buffer 0005  
          __size_of_READ_SWITCHES 01E4               __end_of_Conv_Entero 16E2  
                 __end_of___aldiv 1C7E                             ?_atoi 0007  
                 __end_of___almod 1E4A                             ?_main 0001  
                           STR_10 084A                             STR_11 082E  
                           STR_20 0856                             STR_12 08D5  
                           STR_21 0862                             STR_13 08E1  
                           STR_30 0885                             STR_22 083C  
                           STR_14 08CD                             STR_31 089B  
                           STR_15 08E4                             STR_23 087A  
                           STR_16 0801                             STR_32 087A  
                           STR_40 08E1                             STR_24 0885  
                           STR_41 08CD                             STR_33 0890  
                           STR_17 08A6                             STR_25 089B  
                           STR_42 08E4                             STR_26 087A  
                           STR_34 089B                             STR_18 0811  
                           STR_19 08B1                             STR_35 08C4  
                           STR_43 08DB                             STR_27 0890  
                           STR_28 089B                             STR_36 086E  
                           STR_29 087A                             STR_37 0820  
                           STR_38 08BB                             STR_39 08D5  
                 __end_of___lldiv 20B4                             _T2CON 000FBA  
          __end_of_SENO_GENERAR_1 23AA            __end_of_SENO_GENERAR_2 2342  
          __end_of_SENO_GENERAR_3 21A2                             _PORTA 000F80  
                           _TRISA 000F92                             _Ciclo 251C  
                   __CFG_WRT0$OFF 000000                     __CFG_WRT1$OFF 000000  
                   __CFG_WRT2$OFF 000000               ___lmul@multiplicand 0005  
                   __CFG_WRT3$OFF 000000                    __CFG_EBTR0$OFF 000000  
                  __CFG_FCMEN$OFF 000000                    __CFG_EBTR1$OFF 000000  
                  __CFG_EBTR2$OFF 000000                    __CFG_EBTR3$OFF 000000  
                   __CFG_WRTB$OFF 000000                     __CFG_WRTC$OFF 000000  
                   __CFG_WRTD$OFF 000000                    __CFG_EBTRB$OFF 000000  
                           _ciclo 00D0                       Tec@contador 0010  
                           _tm_1s 1FA4                   __end_of_isdigit 2592  
                           atoi@a 000C                             atoi@s 0007  
                    ?_int_teclado 0001                             tablat 000FF5  
                      _Frecuencia 24EC                             status 000FD8  
                  __CFG_T3CMX$RC0 000000                    __CFG_ICPRT$OFF 000000  
                  __CFG_PBADEN$ON 000000                  __end_of_Lcd_Init 1936  
                __end_of_Lcd_Out2 1FA4                   __initialization 20B4  
                    __end_of_atoi 1F14                      __end_of_main 10F2  
               _Imprimir_pantalla 24B0                ?_Imprimir_pantalla 0009  
                          ??_atoi 0009                            ??_main 0038  
                   __activetblptr 000002                   ?_SENO_GENERAR_1 0001  
                 ?_SENO_GENERAR_2 0001                   ?_SENO_GENERAR_3 0001  
                          ?_Ciclo 0015               ??_Imprimir_pantalla 000B  
                  __CFG_SDOMX$RB3 000000                   __CFG_CCP2MX$RC1 000000  
                          ?_tm_1s 0001                            _CCPR2L 000F90  
                          _ANSELA 000F5B                            _ANSELC 000F5D  
                          _ANSELD 000F5E                     _READ_SWITCHES 1326  
                  __CFG_WDTEN$OFF 000000                            _OSCCON 000FD3  
                       ??_Lcd_Cmd 0001                         ??_Lcd_Out 0007  
                          Tec@Key 0014                            Tec@aux 000F  
                  __CFG_XINST$OFF 000000         __end_of_Imprimir_pantalla 24EC  
                     _Conv_Entero 150A                Imprimir_pantalla@N 0009  
                __end_of_lcd_goto 24B0                   SENO_GENERAR_1@i 0018  
                 SENO_GENERAR_2@i 0036                   SENO_GENERAR_3@i 00C4  
                          ___lmul 240C                       ?_Lcd_Chr_CP 0001  
                       ??___aldiv 0009                            _cadena 0054  
                       ??___almod 0009                            ___wmul 254C  
                  __CFG_STVREN$ON 000000                __size_of_Recuperar 000E  
                       ??___lldiv 0009              PWM_generar@AuxCCPR2L 001E  
             SENO_GENERAR_1@F7356 00E4               SENO_GENERAR_2@F7361 0164  
             SENO_GENERAR_3@F7366 0100                            clear_0 20BA  
                          clear_1 20C6                            main@zx 0039  
                    __pdataCOMRAM 005E                         ??_isdigit 0001  
                    __mediumconst 0000                            tblptrh 000FF7  
                          tblptrl 000FF6                            tblptru 000FF8  
                  ?_READ_SWITCHES 0001              __CFG_LS48MHZ$SYS24X4 000000  
                     ?_Frecuencia 0015                        __accesstop 0060  
         __end_of__initialization 2124                     __end_of_Ciclo 254C  
                  __pcstackCOMRAM 0001                      __pidataBANK0 2592  
                    __pidataBANK1 1C7E                     __end_of_tm_1s 2032  
                 __CFG_PCLKEN$OFF 000000                           ??_Ciclo 0017  
                       ?_Lcd_Init 0001                         ?_Lcd_Out2 0004  
                         ??_tm_1s 0001                 __end_of_Recuperar 25B4  
             __size_of_Lcd_Chr_CP 012C                        __pbssBANK0 00C6  
                    ?_PWM_generar 000E              __size_of_int_teclado 000A  
      __size_of_Imprimir_pantalla 003C                 __CFG_PLLSEL$PLL4X 000000  
                         ?___lmul 0001                           ?___wmul 0001  
   __size_of_TRIANGULAR_GENERAR_1 0068     __size_of_TRIANGULAR_GENERAR_2 0068  
   __size_of_TRIANGULAR_GENERAR_3 0068                           _CCP2CON 000F97  
                  ___lmul@product 0009  TRIANGULAR_GENERAR_1@valoresTrian 0004  
             __size_of_Frecuencia 0030                   ??_READ_SWITCHES 0001  
           TRIANGULAR_GENERAR_1@i 0018             TRIANGULAR_GENERAR_2@i 0022  
           TRIANGULAR_GENERAR_3@i 002C                        ??_Lcd_Init 0004  
                      ??_Lcd_Out2 0007                         ?_lcd_goto 0004  
                         _Lcd_Cmd 1A5C                           _Lcd_Out 23AA  
                      _frecuencia 00DA                           __Hparam 0000  
                         __Lparam 0000                           ___aldiv 1B82  
                         ___almod 1D6E                   __size_of___lmul 0056  
                         ___lldiv 2032                   __size_of___wmul 0026  
                ??_SENO_GENERAR_1 0001                  ??_SENO_GENERAR_2 0001  
                ??_SENO_GENERAR_3 0001                      __psmallconst 0800  
                         __pcinit 20B4             PWM_generar@AuxCCP2CON 0018  
                         __ramtop 0800                           __ptext0 08E8  
                         __ptext1 25B4                           __ptext2 1E4A  
                         __ptext3 2572                           __ptext4 254C  
                         __ptext5 21A2                           __ptext6 220A  
                         __ptext7 2272                           __ptext8 212E  
                         __ptext9 22DA                           _columna 0051  
                    __size_of_Tec 0126                         _T2CONbits 000FBA  
                         _isdigit 2572                  ___aldiv@dividend 0001  
                         main@key 003D                        ??_lcd_goto 0008  
            end_of_initialization 2124                     __Lmediumconst 0000  
       TRIANGULAR_GENERAR_1@F7356 01DC         TRIANGULAR_GENERAR_2@F7361 01BE  
       TRIANGULAR_GENERAR_3@F7366 0196                   ___lldiv@divisor 0005  
                 ___lldiv@counter 000D                      ?_Conv_Entero 000F  
                ___aldiv@quotient 000B                      ??_Lcd_Chr_CP 0001  
                       Lcd_Out2@x 0004                         Lcd_Out2@y 0007  
                         postdec1 000FE5                           postinc0 000FEE  
                         postinc1 000FE6                           postinc2 000FDE  
                       _PORTAbits 000F80                   Conv_Entero@conv 0013  
                       _PORTDbits 000F83  TRIANGULAR_GENERAR_2@valoresTrian 0004  
                       _TRISCbits 000F94                         _TRISDbits 000F95  
            Frecuencia@frecuencia 0015                __end_of_Lcd_Chr_CP 180E  
                    ??_Frecuencia 0017                         Tec@cadena 000B  
                      main@zx_307 003B              __size_of_PWM_generar 0234  
                  __end_of___lmul 2462                    __end_of___wmul 2572  
                   __pidataCOMRAM 25BE                      Recuperar@key 0002  
              __end_of_Frecuencia 251C               start_initialization 20B4  
                     __end_of_Tec 1A5C                     Lcd_Out@buffer 0005  
               __size_of_Lcd_Init 0128                 __size_of_Lcd_Out2 0090  
                 __CFG_nLPBOR$OFF 000000                         _Recuperar 25A6  
                        ??___lmul 0009              Conv_Entero@numeroReg 0034  
                        ??___wmul 0005             Imprimir_pantalla@fila 000B  
                     __pdataBANK0 00E4                       __pdataBANK1 0100  
TRIANGULAR_GENERAR_3@valoresTrian 0004                       __pbssCOMRAM 003E  
                   __pcstackBANK0 0060               __end_of__stringdata 08E6  
                 __CFG_nPWRTEN$ON 000000      __end_of_TRIANGULAR_GENERAR_1 22DA  
    __end_of_TRIANGULAR_GENERAR_2 2272      __end_of_TRIANGULAR_GENERAR_3 220A  
                   ??_int_teclado 0001         SENO_GENERAR_1@valoresSeno 0004  
                        ?_Lcd_Cmd 0001                 __size_of_lcd_goto 004E  
                        ?_Lcd_Out 0004                        ?_Recuperar 0001  
                        ?___aldiv 0001                          ?___almod 0001  
                        ?___lldiv 0001              __size_of_Conv_Entero 01D8  
                ___almod@dividend 0001            PWM_generar@prescalador 0016  
                     __smallconst 0800                          ?_isdigit 0001  
                  __size_of_Ciclo 0030             __end_of_READ_SWITCHES 150A  
                  __size_of_tm_1s 008E         SENO_GENERAR_2@valoresSeno 0004  
                 ___aldiv@divisor 0005                   ___aldiv@counter 0009  
                  ___wmul@product 0005                          _LATAbits 000F89  
             __end_of_int_teclado 25BE                          Lcd_Out@x 0004  
                __CFG_WDTPS$32768 000000                          Lcd_Out@y 0007  
                  Conv_Entero@num 002F                          _VREFCON1 000F7C  
                    Lcd_Init@data 0005                       __stringdata 0801  
               ___wmul@multiplier 0001                         lcd_goto@x 0004  
                       lcd_goto@y 0006                   PWM_generar@fpwm 0010  
                 PWM_generar@duty 000E                 __CFG_CFGPLLEN$OFF 000000  
                    Lcd_Out2@data 0008                          _Lcd_Init 180E  
                        _Lcd_Out2 1F14               Conv_Entero@convTemp 001A  
               ___lmul@multiplier 0001                         copy_data0 20E0  
                       copy_data1 2100         SENO_GENERAR_3@valoresSeno 0060  
                     ??_Recuperar 0002                  __size_of_Lcd_Cmd 0126  
                __size_of_Lcd_Out 0062                          __Hrparam 0000  
                        __Lrparam 0000                __CFG_BOREN$SBORDIS 000000  
            _TRIANGULAR_GENERAR_1 2272              _TRIANGULAR_GENERAR_2 220A  
            _TRIANGULAR_GENERAR_3 21A2                  __size_of___aldiv 00FC  
                __size_of___almod 00DC                  __size_of___lldiv 0082  
                     _isdigit$933 0002                          _cantidad 0050  
                __size_of_isdigit 0020                    Lcd_Chr_CP@data 0003  
         __size_of_SENO_GENERAR_1 0068           __size_of_SENO_GENERAR_2 0068  
         __size_of_SENO_GENERAR_3 0074                          __ptext10 2342  
                        __ptext11 10F2                          __ptext20 1B82  
                        __ptext12 2032                          __ptext21 251C  
                        __ptext13 23AA                          __ptext22 1936  
                        __ptext14 24B0                          __ptext23 2462  
                        __ptext15 1FA4                          __ptext24 25A6  
                        __ptext16 24EC                          __ptext25 1326  
                        __ptext17 150A                          __ptext26 1F14  
                        __ptext18 240C                          __ptext27 16E2  
                        __ptext19 1D6E                          __ptext28 180E  
                        __ptext29 1A5C                          _lcd_goto 2462  
                 ___almod@divisor 0005                   ___almod@counter 0009  
                     _int_teclado 25B4                     ??_PWM_generar 0012  
                     Lcd_Cmd@data 0003                     __size_of_atoi 00CA  
                   __size_of_main 080A             ?_TRIANGULAR_GENERAR_1 0001  
           ?_TRIANGULAR_GENERAR_2 0001             ?_TRIANGULAR_GENERAR_3 0001  
                        atoi@sign 000B                        Ciclo@ciclo 0015  
        Imprimir_pantalla@columna 000C                       Lcd_Out@data 0008  
                        isdigit@c 0003                      _VREFCON2bits 000F7B  
                ___lldiv@dividend 0001          Conv_Entero@punteroActual 0032  
             __end_of_PWM_generar 1326                      Conv_Entero@i 0031  
            __CFG_CPUDIV$NOCLKDIV 000000                 Conv_Entero@numero 000F  
                ___lldiv@quotient 0009                      ___aldiv@sign 000A  
              __CFG_FOSC$INTOSCIO 000000                      ___almod@sign 000A  
                   ??_Conv_Entero 0015            ??_TRIANGULAR_GENERAR_1 0001  
          ??_TRIANGULAR_GENERAR_2 0001            ??_TRIANGULAR_GENERAR_3 0001  
